ARM GAS  C:\Users\DMA\AppData\Local\Temp\ccs4bZ5s.s 			page 1


   1              		.syntax unified
   2              		.cpu cortex-m0
   3              		.fpu softvfp
   4              		.eabi_attribute 20, 1
   5              		.eabi_attribute 21, 1
   6              		.eabi_attribute 23, 3
   7              		.eabi_attribute 24, 1
   8              		.eabi_attribute 25, 1
   9              		.eabi_attribute 26, 1
  10              		.eabi_attribute 30, 2
  11              		.eabi_attribute 34, 0
  12              		.eabi_attribute 18, 4
  13              		.thumb
  14              		.syntax unified
  15              		.file	"BLE.c"
  16              		.section	.text.CyBle_Init,"ax",%progbits
  17              		.align	2
  18              		.global	CyBle_Init
  19              		.code	16
  20              		.thumb_func
  21              		.type	CyBle_Init, %function
  22              	CyBle_Init:
  23              		@ args = 0, pretend = 0, frame = 0
  24              		@ frame_needed = 0, uses_anonymous_args = 0
  25 0000 10B5     		push	{r4, lr}
  26 0002 0024     		movs	r4, #0
  27 0004 094B     		ldr	r3, .L2
  28              		@ sp needed
  29 0006 1C70     		strb	r4, [r3]
  30 0008 094B     		ldr	r3, .L2+4
  31 000a 1C70     		strb	r4, [r3]
  32 000c 094B     		ldr	r3, .L2+8
  33 000e 1C70     		strb	r4, [r3]
  34 0010 FFF7FEFF 		bl	CyBle_BasInit
  35 0014 FFF7FEFF 		bl	CyBle_DisInit
  36 0018 FFF7FEFF 		bl	CyBle_HidsInit
  37 001c FFF7FEFF 		bl	CyBle_ScpsInit
  38 0020 054B     		ldr	r3, .L2+12
  39 0022 1C70     		strb	r4, [r3]
  40 0024 054B     		ldr	r3, .L2+16
  41 0026 1C70     		strb	r4, [r3]
  42 0028 10BD     		pop	{r4, pc}
  43              	.L3:
  44 002a C046     		.align	2
  45              	.L2:
  46 002c 00000000 		.word	cyBle_eventHandlerFlag
  47 0030 00000000 		.word	cyBle_busyStatus
  48 0034 00000000 		.word	cyBle_advertisingIntervalType
  49 0038 00000000 		.word	cyBle_pendingFlashWrite
  50 003c 00000000 		.word	cyBle_peerBonding
  51              		.size	CyBle_Init, .-CyBle_Init
  52              		.section	.text.CyBle_ServiceInit,"ax",%progbits
  53              		.align	2
  54              		.global	CyBle_ServiceInit
  55              		.code	16
  56              		.thumb_func
  57              		.type	CyBle_ServiceInit, %function
ARM GAS  C:\Users\DMA\AppData\Local\Temp\ccs4bZ5s.s 			page 2


  58              	CyBle_ServiceInit:
  59              		@ args = 0, pretend = 0, frame = 0
  60              		@ frame_needed = 0, uses_anonymous_args = 0
  61 0000 10B5     		push	{r4, lr}
  62 0002 FFF7FEFF 		bl	CyBle_BasInit
  63              		@ sp needed
  64 0006 FFF7FEFF 		bl	CyBle_DisInit
  65 000a FFF7FEFF 		bl	CyBle_HidsInit
  66 000e FFF7FEFF 		bl	CyBle_ScpsInit
  67 0012 10BD     		pop	{r4, pc}
  68              		.size	CyBle_ServiceInit, .-CyBle_ServiceInit
  69              		.section	.text.CyBle_Start,"ax",%progbits
  70              		.align	2
  71              		.global	CyBle_Start
  72              		.code	16
  73              		.thumb_func
  74              		.type	CyBle_Start, %function
  75              	CyBle_Start:
  76              		@ args = 0, pretend = 0, frame = 48
  77              		@ frame_needed = 0, uses_anonymous_args = 0
  78 0000 70B5     		push	{r4, r5, r6, lr}
  79 0002 90B0     		sub	sp, sp, #64
  80 0004 0500     		movs	r5, r0
  81 0006 1422     		movs	r2, #20
  82 0008 2849     		ldr	r1, .L13
  83 000a 0BA8     		add	r0, sp, #44
  84 000c FFF7FEFF 		bl	memcpy
  85 0010 274E     		ldr	r6, .L13+4
  86 0012 3478     		ldrb	r4, [r6]
  87 0014 002C     		cmp	r4, #0
  88 0016 31D0     		beq	.L10
  89 0018 002D     		cmp	r5, #0
  90 001a 45D0     		beq	.L8
  91              	.L12:
  92 001c 0021     		movs	r1, #0
  93 001e 254B     		ldr	r3, .L13+8
  94 0020 08A8     		add	r0, sp, #32
  95 0022 1D60     		str	r5, [r3]
  96 0024 0181     		strh	r1, [r0, #8]
  97 0026 06AB     		add	r3, sp, #24
  98 0028 1B31     		adds	r1, r1, #27
  99 002a 1980     		strh	r1, [r3]
 100 002c 5980     		strh	r1, [r3, #2]
 101 002e 1739     		subs	r1, r1, #23
 102 0030 1971     		strb	r1, [r3, #4]
 103 0032 0893     		str	r3, [sp, #32]
 104 0034 0823     		movs	r3, #8
 105 0036 1231     		adds	r1, r1, #18
 106 0038 05AA     		add	r2, sp, #20
 107 003a 6944     		add	r1, r1, sp
 108 003c 4260     		str	r2, [r0, #4]
 109 003e 1370     		strb	r3, [r2]
 110 0040 FFF7FEFF 		bl	CyBle_StackSetFeatureConfig
 111 0044 0028     		cmp	r0, #0
 112 0046 01D0     		beq	.L11
 113              	.L7:
 114 0048 10B0     		add	sp, sp, #64
ARM GAS  C:\Users\DMA\AppData\Local\Temp\ccs4bZ5s.s 			page 3


 115              		@ sp needed
 116 004a 70BD     		pop	{r4, r5, r6, pc}
 117              	.L11:
 118 004c 1A4B     		ldr	r3, .L13+12
 119 004e AE22     		movs	r2, #174
 120 0050 0293     		str	r3, [sp, #8]
 121 0052 1A4B     		ldr	r3, .L13+16
 122 0054 1201     		lsls	r2, r2, #4
 123 0056 0193     		str	r3, [sp, #4]
 124 0058 0523     		movs	r3, #5
 125 005a 1949     		ldr	r1, .L13+20
 126 005c 0093     		str	r3, [sp]
 127 005e 1948     		ldr	r0, .L13+24
 128 0060 0BAB     		add	r3, sp, #44
 129 0062 FFF7FEFF 		bl	CyBle_StackInit
 130 0066 0028     		cmp	r0, #0
 131 0068 EED1     		bne	.L7
 132 006a 0122     		movs	r2, #1
 133 006c 164B     		ldr	r3, .L13+28
 134 006e 4F21     		movs	r1, #79
 135 0070 1A70     		strb	r2, [r3]
 136 0072 1648     		ldr	r0, .L13+32
 137 0074 3F32     		adds	r2, r2, #63
 138 0076 FFF7FEFF 		bl	CyBle_GattsDbRegister
 139 007a E5E7     		b	.L7
 140              	.L10:
 141 007c 144B     		ldr	r3, .L13+36
 142 007e 1C70     		strb	r4, [r3]
 143 0080 144B     		ldr	r3, .L13+40
 144 0082 1C70     		strb	r4, [r3]
 145 0084 144B     		ldr	r3, .L13+44
 146 0086 1C70     		strb	r4, [r3]
 147 0088 FFF7FEFF 		bl	CyBle_BasInit
 148 008c FFF7FEFF 		bl	CyBle_DisInit
 149 0090 FFF7FEFF 		bl	CyBle_HidsInit
 150 0094 FFF7FEFF 		bl	CyBle_ScpsInit
 151 0098 104B     		ldr	r3, .L13+48
 152 009a 1C70     		strb	r4, [r3]
 153 009c 104B     		ldr	r3, .L13+52
 154 009e 1C70     		strb	r4, [r3]
 155 00a0 0123     		movs	r3, #1
 156 00a2 3370     		strb	r3, [r6]
 157 00a4 002D     		cmp	r5, #0
 158 00a6 B9D1     		bne	.L12
 159              	.L8:
 160 00a8 0120     		movs	r0, #1
 161 00aa CDE7     		b	.L7
 162              	.L14:
 163              		.align	2
 164              	.L13:
 165 00ac 00000000 		.word	.LANCHOR0
 166 00b0 00000000 		.word	.LANCHOR1
 167 00b4 00000000 		.word	CyBle_ApplCallback
 168 00b8 79020000 		.word	633
 169 00bc 00000000 		.word	cyBle_flashStorage
 170 00c0 00000000 		.word	.LANCHOR2
 171 00c4 00000000 		.word	CyBle_EventHandler
ARM GAS  C:\Users\DMA\AppData\Local\Temp\ccs4bZ5s.s 			page 4


 172 00c8 00000000 		.word	cyBle_state
 173 00cc 00000000 		.word	cyBle_gattDB
 174 00d0 00000000 		.word	cyBle_eventHandlerFlag
 175 00d4 00000000 		.word	cyBle_busyStatus
 176 00d8 00000000 		.word	cyBle_advertisingIntervalType
 177 00dc 00000000 		.word	cyBle_pendingFlashWrite
 178 00e0 00000000 		.word	cyBle_peerBonding
 179              		.size	CyBle_Start, .-CyBle_Start
 180              		.section	.text.CyBle_Stop,"ax",%progbits
 181              		.align	2
 182              		.global	CyBle_Stop
 183              		.code	16
 184              		.thumb_func
 185              		.type	CyBle_Stop, %function
 186              	CyBle_Stop:
 187              		@ args = 0, pretend = 0, frame = 0
 188              		@ frame_needed = 0, uses_anonymous_args = 0
 189 0000 10B5     		push	{r4, lr}
 190 0002 FFF7FEFF 		bl	CyBle_Shutdown
 191 0006 0022     		movs	r2, #0
 192 0008 014B     		ldr	r3, .L16
 193              		@ sp needed
 194 000a 1A70     		strb	r2, [r3]
 195 000c 10BD     		pop	{r4, pc}
 196              	.L17:
 197 000e C046     		.align	2
 198              	.L16:
 199 0010 00000000 		.word	cyBle_state
 200              		.size	CyBle_Stop, .-CyBle_Stop
 201              		.section	.text.CyBle_StoreBondingData,"ax",%progbits
 202              		.align	2
 203              		.global	CyBle_StoreBondingData
 204              		.code	16
 205              		.thumb_func
 206              		.type	CyBle_StoreBondingData, %function
 207              	CyBle_StoreBondingData:
 208              		@ args = 0, pretend = 0, frame = 80
 209              		@ frame_needed = 0, uses_anonymous_args = 0
 210 0000 70B5     		push	{r4, r5, r6, lr}
 211 0002 0126     		movs	r6, #1
 212 0004 344C     		ldr	r4, .L47
 213 0006 94B0     		sub	sp, sp, #80
 214 0008 2378     		ldrb	r3, [r4]
 215 000a 0500     		movs	r5, r0
 216 000c 1E42     		tst	r6, r3
 217 000e 30D1     		bne	.L45
 218              	.L19:
 219 0010 9A07     		lsls	r2, r3, #30
 220 0012 18D4     		bmi	.L46
 221              	.L31:
 222 0014 0020     		movs	r0, #0
 223              	.L23:
 224 0016 0C22     		movs	r2, #12
 225 0018 1A42     		tst	r2, r3
 226 001a 12D0     		beq	.L36
 227 001c 0826     		movs	r6, #8
 228 001e 1E42     		tst	r6, r3
ARM GAS  C:\Users\DMA\AppData\Local\Temp\ccs4bZ5s.s 			page 5


 229 0020 3DD0     		beq	.L25
 230 0022 4432     		adds	r2, r2, #68
 231 0024 0021     		movs	r1, #0
 232 0026 6846     		mov	r0, sp
 233 0028 FFF7FEFF 		bl	memset
 234 002c 2B00     		movs	r3, r5
 235 002e 5022     		movs	r2, #80
 236 0030 2A49     		ldr	r1, .L47+4
 237 0032 6846     		mov	r0, sp
 238 0034 FFF7FEFF 		bl	CyBle_StoreAppData
 239 0038 0028     		cmp	r0, #0
 240 003a 02D1     		bne	.L36
 241 003c 2378     		ldrb	r3, [r4]
 242 003e B343     		bics	r3, r6
 243 0040 2370     		strb	r3, [r4]
 244              	.L36:
 245 0042 14B0     		add	sp, sp, #80
 246              		@ sp needed
 247 0044 70BD     		pop	{r4, r5, r6, pc}
 248              	.L46:
 249 0046 264A     		ldr	r2, .L47+8
 250 0048 1178     		ldrb	r1, [r2]
 251 004a 0429     		cmp	r1, #4
 252 004c E2D8     		bhi	.L31
 253              	.L29:
 254 004e 254B     		ldr	r3, .L47+12
 255 0050 0901     		lsls	r1, r1, #4
 256 0052 5918     		adds	r1, r3, r1
 257 0054 244B     		ldr	r3, .L47+16
 258 0056 1022     		movs	r2, #16
 259 0058 9C46     		mov	ip, r3
 260 005a 2448     		ldr	r0, .L47+20
 261 005c 6144     		add	r1, r1, ip
 262 005e 2B00     		movs	r3, r5
 263 0060 FFF7FEFF 		bl	CyBle_StoreAppData
 264 0064 0028     		cmp	r0, #0
 265 0066 33D1     		bne	.L22
 266 0068 0222     		movs	r2, #2
 267 006a 2378     		ldrb	r3, [r4]
 268 006c 9343     		bics	r3, r2
 269 006e 2370     		strb	r3, [r4]
 270 0070 D1E7     		b	.L23
 271              	.L45:
 272 0072 FFF7FEFF 		bl	CyBle_StoreStackData
 273 0076 0028     		cmp	r0, #0
 274 0078 06D1     		bne	.L20
 275 007a 2278     		ldrb	r2, [r4]
 276 007c 1300     		movs	r3, r2
 277 007e B343     		bics	r3, r6
 278 0080 2370     		strb	r3, [r4]
 279 0082 9207     		lsls	r2, r2, #30
 280 0084 C4D5     		bpl	.L19
 281 0086 2820     		movs	r0, #40
 282              	.L20:
 283 0088 002D     		cmp	r5, #0
 284 008a DAD0     		beq	.L36
 285 008c 2378     		ldrb	r3, [r4]
ARM GAS  C:\Users\DMA\AppData\Local\Temp\ccs4bZ5s.s 			page 6


 286 008e 9B07     		lsls	r3, r3, #30
 287 0090 03D5     		bpl	.L21
 288 0092 134B     		ldr	r3, .L47+8
 289 0094 1978     		ldrb	r1, [r3]
 290 0096 0429     		cmp	r1, #4
 291 0098 D9D9     		bls	.L29
 292              	.L21:
 293 009a 2378     		ldrb	r3, [r4]
 294 009c BBE7     		b	.L23
 295              	.L25:
 296 009e 1022     		movs	r2, #16
 297 00a0 0021     		movs	r1, #0
 298 00a2 6846     		mov	r0, sp
 299 00a4 FFF7FEFF 		bl	memset
 300 00a8 114B     		ldr	r3, .L47+24
 301 00aa 1022     		movs	r2, #16
 302 00ac 5978     		ldrb	r1, [r3, #1]
 303 00ae 0D4B     		ldr	r3, .L47+12
 304 00b0 0901     		lsls	r1, r1, #4
 305 00b2 5918     		adds	r1, r3, r1
 306 00b4 0C4B     		ldr	r3, .L47+16
 307 00b6 6846     		mov	r0, sp
 308 00b8 9C46     		mov	ip, r3
 309 00ba 2B00     		movs	r3, r5
 310 00bc 6144     		add	r1, r1, ip
 311 00be FFF7FEFF 		bl	CyBle_StoreAppData
 312 00c2 0028     		cmp	r0, #0
 313 00c4 BDD1     		bne	.L36
 314 00c6 0422     		movs	r2, #4
 315 00c8 2378     		ldrb	r3, [r4]
 316 00ca 9343     		bics	r3, r2
 317 00cc 2370     		strb	r3, [r4]
 318 00ce B8E7     		b	.L36
 319              	.L22:
 320 00d0 002D     		cmp	r5, #0
 321 00d2 B6D0     		beq	.L36
 322 00d4 2378     		ldrb	r3, [r4]
 323 00d6 9EE7     		b	.L23
 324              	.L48:
 325              		.align	2
 326              	.L47:
 327 00d8 00000000 		.word	cyBle_pendingFlashWrite
 328 00dc 79020000 		.word	cyBle_flashStorage+633
 329 00e0 00000000 		.word	cyBle_connHandle
 330 00e4 00000000 		.word	cyBle_flashStorage
 331 00e8 79020000 		.word	633
 332 00ec 00000000 		.word	cyBle_attValuesCCCD
 333 00f0 00000000 		.word	.LANCHOR1
 334              		.size	CyBle_StoreBondingData, .-CyBle_StoreBondingData
 335              		.section	.text.CyBle_GapRemoveBondedDevice,"ax",%progbits
 336              		.align	2
 337              		.global	CyBle_GapRemoveBondedDevice
 338              		.code	16
 339              		.thumb_func
 340              		.type	CyBle_GapRemoveBondedDevice, %function
 341              	CyBle_GapRemoveBondedDevice:
 342              		@ args = 0, pretend = 0, frame = 16
ARM GAS  C:\Users\DMA\AppData\Local\Temp\ccs4bZ5s.s 			page 7


 343              		@ frame_needed = 0, uses_anonymous_args = 0
 344 0000 30B5     		push	{r4, r5, lr}
 345 0002 154C     		ldr	r4, .L57
 346 0004 0500     		movs	r5, r0
 347 0006 2378     		ldrb	r3, [r4]
 348 0008 85B0     		sub	sp, sp, #20
 349 000a 0220     		movs	r0, #2
 350 000c 002B     		cmp	r3, #0
 351 000e 01D0     		beq	.L56
 352              	.L55:
 353 0010 05B0     		add	sp, sp, #20
 354              		@ sp needed
 355 0012 30BD     		pop	{r4, r5, pc}
 356              	.L56:
 357 0014 0722     		movs	r2, #7
 358 0016 0021     		movs	r1, #0
 359 0018 02A8     		add	r0, sp, #8
 360 001a FFF7FEFF 		bl	memset
 361 001e 0622     		movs	r2, #6
 362 0020 02A9     		add	r1, sp, #8
 363 0022 2800     		movs	r0, r5
 364 0024 FFF7FEFF 		bl	memcmp
 365 0028 0028     		cmp	r0, #0
 366 002a 05D1     		bne	.L51
 367 002c 0823     		movs	r3, #8
 368 002e 2370     		strb	r3, [r4]
 369              	.L52:
 370 0030 2800     		movs	r0, r5
 371 0032 FFF7FEFF 		bl	CyBle_GapRemoveDeviceFromWhiteList
 372 0036 EBE7     		b	.L55
 373              	.L51:
 374 0038 6B46     		mov	r3, sp
 375 003a 2900     		movs	r1, r5
 376 003c D81D     		adds	r0, r3, #7
 377 003e FFF7FEFF 		bl	CyBle_GapGetPeerBdHandle
 378 0042 0028     		cmp	r0, #0
 379 0044 E4D1     		bne	.L55
 380 0046 0423     		movs	r3, #4
 381 0048 2278     		ldrb	r2, [r4]
 382 004a 1343     		orrs	r3, r2
 383 004c 2370     		strb	r3, [r4]
 384 004e 6B46     		mov	r3, sp
 385 0050 DA79     		ldrb	r2, [r3, #7]
 386 0052 024B     		ldr	r3, .L57+4
 387 0054 5A70     		strb	r2, [r3, #1]
 388 0056 EBE7     		b	.L52
 389              	.L58:
 390              		.align	2
 391              	.L57:
 392 0058 00000000 		.word	cyBle_pendingFlashWrite
 393 005c 00000000 		.word	.LANCHOR1
 394              		.size	CyBle_GapRemoveBondedDevice, .-CyBle_GapRemoveBondedDevice
 395              		.section	.text.CyBle_GappStartAdvertisement,"ax",%progbits
 396              		.align	2
 397              		.global	CyBle_GappStartAdvertisement
 398              		.code	16
 399              		.thumb_func
ARM GAS  C:\Users\DMA\AppData\Local\Temp\ccs4bZ5s.s 			page 8


 400              		.type	CyBle_GappStartAdvertisement, %function
 401              	CyBle_GappStartAdvertisement:
 402              		@ args = 0, pretend = 0, frame = 0
 403              		@ frame_needed = 0, uses_anonymous_args = 0
 404 0000 0300     		movs	r3, r0
 405 0002 10B5     		push	{r4, lr}
 406 0004 0120     		movs	r0, #1
 407 0006 022B     		cmp	r3, #2
 408 0008 05D8     		bhi	.L60
 409 000a 144A     		ldr	r2, .L69
 410 000c 1278     		ldrb	r2, [r2]
 411 000e 042A     		cmp	r2, #4
 412 0010 02D0     		beq	.L68
 413              	.L65:
 414 0012 0420     		movs	r0, #4
 415 0014 FF30     		adds	r0, r0, #255
 416              	.L60:
 417              		@ sp needed
 418 0016 10BD     		pop	{r4, pc}
 419              	.L68:
 420 0018 114C     		ldr	r4, .L69+4
 421 001a 2178     		ldrb	r1, [r4]
 422 001c 0A42     		tst	r2, r1
 423 001e F8D1     		bne	.L65
 424 0020 1048     		ldr	r0, .L69+8
 425 0022 002B     		cmp	r3, #0
 426 0024 10D1     		bne	.L61
 427 0026 2021     		movs	r1, #32
 428 0028 1A32     		adds	r2, r2, #26
 429 002a 0282     		strh	r2, [r0, #16]
 430 002c 4268     		ldr	r2, [r0, #4]
 431 002e 1180     		strh	r1, [r2]
 432 0030 5180     		strh	r1, [r2, #2]
 433              	.L62:
 434 0032 0D4A     		ldr	r2, .L69+12
 435 0034 1370     		strb	r3, [r2]
 436 0036 FFF7FEFF 		bl	CyBle_GappEnterDiscoveryMode
 437 003a 0028     		cmp	r0, #0
 438 003c EBD1     		bne	.L60
 439 003e 0423     		movs	r3, #4
 440 0040 2278     		ldrb	r2, [r4]
 441 0042 1343     		orrs	r3, r2
 442 0044 2370     		strb	r3, [r4]
 443 0046 E6E7     		b	.L60
 444              	.L61:
 445 0048 012B     		cmp	r3, #1
 446 004a F2D1     		bne	.L62
 447 004c 9622     		movs	r2, #150
 448 004e C821     		movs	r1, #200
 449 0050 0282     		strh	r2, [r0, #16]
 450 0052 4268     		ldr	r2, [r0, #4]
 451 0054 C900     		lsls	r1, r1, #3
 452 0056 1180     		strh	r1, [r2]
 453 0058 5180     		strh	r1, [r2, #2]
 454 005a EAE7     		b	.L62
 455              	.L70:
 456              		.align	2
ARM GAS  C:\Users\DMA\AppData\Local\Temp\ccs4bZ5s.s 			page 9


 457              	.L69:
 458 005c 00000000 		.word	cyBle_state
 459 0060 00000000 		.word	cyBle_eventHandlerFlag
 460 0064 00000000 		.word	.LANCHOR3
 461 0068 00000000 		.word	cyBle_advertisingIntervalType
 462              		.size	CyBle_GappStartAdvertisement, .-CyBle_GappStartAdvertisement
 463              		.section	.text.CyBle_GappStopAdvertisement,"ax",%progbits
 464              		.align	2
 465              		.global	CyBle_GappStopAdvertisement
 466              		.code	16
 467              		.thumb_func
 468              		.type	CyBle_GappStopAdvertisement, %function
 469              	CyBle_GappStopAdvertisement:
 470              		@ args = 0, pretend = 0, frame = 0
 471              		@ frame_needed = 0, uses_anonymous_args = 0
 472 0000 10B5     		push	{r4, lr}
 473 0002 FFF7FEFF 		bl	CyBle_GappExitDiscoveryMode
 474 0006 0823     		movs	r3, #8
 475 0008 024A     		ldr	r2, .L72
 476              		@ sp needed
 477 000a 1178     		ldrb	r1, [r2]
 478 000c 0B43     		orrs	r3, r1
 479 000e 1370     		strb	r3, [r2]
 480 0010 10BD     		pop	{r4, pc}
 481              	.L73:
 482 0012 C046     		.align	2
 483              	.L72:
 484 0014 00000000 		.word	cyBle_eventHandlerFlag
 485              		.size	CyBle_GappStopAdvertisement, .-CyBle_GappStopAdvertisement
 486              		.section	.text.CyBle_ChangeAdDeviceAddress,"ax",%progbits
 487              		.align	2
 488              		.global	CyBle_ChangeAdDeviceAddress
 489              		.code	16
 490              		.thumb_func
 491              		.type	CyBle_ChangeAdDeviceAddress, %function
 492              	CyBle_ChangeAdDeviceAddress:
 493              		@ args = 0, pretend = 0, frame = 0
 494              		@ frame_needed = 0, uses_anonymous_args = 0
 495              		@ link register save eliminated.
 496              		@ sp needed
 497 0000 7047     		bx	lr
 498              		.size	CyBle_ChangeAdDeviceAddress, .-CyBle_ChangeAdDeviceAddress
 499 0002 C046     		.section	.text.CyBle_GapSetLocalName,"ax",%progbits
 500              		.align	2
 501              		.global	CyBle_GapSetLocalName
 502              		.code	16
 503              		.thumb_func
 504              		.type	CyBle_GapSetLocalName, %function
 505              	CyBle_GapSetLocalName:
 506              		@ args = 0, pretend = 0, frame = 0
 507              		@ frame_needed = 0, uses_anonymous_args = 0
 508 0000 F0B5     		push	{r4, r5, r6, r7, lr}
 509 0002 0028     		cmp	r0, #0
 510 0004 00D1     		bne	.LCB550
 511 0006 8EE0     		b	.L100	@long jump
 512              	.LCB550:
 513 0008 484B     		ldr	r3, .L129
ARM GAS  C:\Users\DMA\AppData\Local\Temp\ccs4bZ5s.s 			page 10


 514 000a 5B88     		ldrh	r3, [r3, #2]
 515 000c 013B     		subs	r3, r3, #1
 516 000e 9A00     		lsls	r2, r3, #2
 517 0010 D318     		adds	r3, r2, r3
 518 0012 474A     		ldr	r2, .L129+4
 519 0014 9B00     		lsls	r3, r3, #2
 520 0016 D318     		adds	r3, r2, r3
 521 0018 1A69     		ldr	r2, [r3, #16]
 522 001a 197B     		ldrb	r1, [r3, #12]
 523 001c 5468     		ldr	r4, [r2, #4]
 524 001e 0029     		cmp	r1, #0
 525 0020 0FD0     		beq	.L98
 526 0022 0278     		ldrb	r2, [r0]
 527 0024 002A     		cmp	r2, #0
 528 0026 00D1     		bne	.LCB567
 529 0028 79E0     		b	.L101	@long jump
 530              	.LCB567:
 531 002a 0139     		subs	r1, r1, #1
 532 002c C9B2     		uxtb	r1, r1
 533 002e 0023     		movs	r3, #0
 534 0030 04E0     		b	.L79
 535              	.L124:
 536 0032 0133     		adds	r3, r3, #1
 537 0034 C25C     		ldrb	r2, [r0, r3]
 538 0036 002A     		cmp	r2, #0
 539 0038 00D1     		bne	.LCB578
 540 003a 71E0     		b	.L78	@long jump
 541              	.LCB578:
 542              	.L79:
 543 003c E254     		strb	r2, [r4, r3]
 544 003e 9942     		cmp	r1, r3
 545 0040 F7D1     		bne	.L124
 546              	.L98:
 547 0042 3323     		movs	r3, #51
 548 0044 3B4D     		ldr	r5, .L129+8
 549 0046 EF5C     		ldrb	r7, [r5, r3]
 550 0048 002F     		cmp	r7, #0
 551 004a 28D0     		beq	.L80
 552 004c 2C7D     		ldrb	r4, [r5, #20]
 553 004e 0022     		movs	r2, #0
 554 0050 2E00     		movs	r6, r5
 555 0052 002C     		cmp	r4, #0
 556 0054 07D1     		bne	.L111
 557 0056 22E0     		b	.L80
 558              	.L125:
 559 0058 DAB2     		uxtb	r2, r3
 560 005a 9742     		cmp	r7, r2
 561 005c 1FD9     		bls	.L80
 562 005e B318     		adds	r3, r6, r2
 563 0060 1C7D     		ldrb	r4, [r3, #20]
 564 0062 002C     		cmp	r4, #0
 565 0064 1BD0     		beq	.L80
 566              	.L111:
 567 0066 511C     		adds	r1, r2, #1
 568 0068 CBB2     		uxtb	r3, r1
 569 006a E918     		adds	r1, r5, r3
 570 006c 097D     		ldrb	r1, [r1, #20]
ARM GAS  C:\Users\DMA\AppData\Local\Temp\ccs4bZ5s.s 			page 11


 571 006e 1B19     		adds	r3, r3, r4
 572 0070 0839     		subs	r1, r1, #8
 573 0072 0129     		cmp	r1, #1
 574 0074 F0D8     		bhi	.L125
 575 0076 0232     		adds	r2, r2, #2
 576 0078 DCB2     		uxtb	r4, r3
 577 007a D3B2     		uxtb	r3, r2
 578 007c 9C42     		cmp	r4, r3
 579 007e 0ED9     		bls	.L80
 580 0080 0278     		ldrb	r2, [r0]
 581 0082 1E00     		movs	r6, r3
 582 0084 002A     		cmp	r2, #0
 583 0086 04D1     		bne	.L87
 584 0088 39E0     		b	.L86
 585              	.L126:
 586 008a 9A1B     		subs	r2, r3, r6
 587 008c 825C     		ldrb	r2, [r0, r2]
 588 008e 002A     		cmp	r2, #0
 589 0090 35D0     		beq	.L86
 590              	.L87:
 591 0092 E918     		adds	r1, r5, r3
 592 0094 0133     		adds	r3, r3, #1
 593 0096 DBB2     		uxtb	r3, r3
 594 0098 0A75     		strb	r2, [r1, #20]
 595 009a 9C42     		cmp	r4, r3
 596 009c F5D8     		bhi	.L126
 597              	.L80:
 598 009e 2323     		movs	r3, #35
 599 00a0 254D     		ldr	r5, .L129+12
 600 00a2 EF5C     		ldrb	r7, [r5, r3]
 601 00a4 002F     		cmp	r7, #0
 602 00a6 28D0     		beq	.L90
 603 00a8 2C79     		ldrb	r4, [r5, #4]
 604 00aa 0022     		movs	r2, #0
 605 00ac 2E00     		movs	r6, r5
 606 00ae 002C     		cmp	r4, #0
 607 00b0 07D1     		bne	.L110
 608 00b2 22E0     		b	.L90
 609              	.L127:
 610 00b4 DAB2     		uxtb	r2, r3
 611 00b6 9742     		cmp	r7, r2
 612 00b8 1FD9     		bls	.L90
 613 00ba B318     		adds	r3, r6, r2
 614 00bc 1C79     		ldrb	r4, [r3, #4]
 615 00be 002C     		cmp	r4, #0
 616 00c0 1BD0     		beq	.L90
 617              	.L110:
 618 00c2 511C     		adds	r1, r2, #1
 619 00c4 CBB2     		uxtb	r3, r1
 620 00c6 E918     		adds	r1, r5, r3
 621 00c8 0979     		ldrb	r1, [r1, #4]
 622 00ca 1B19     		adds	r3, r3, r4
 623 00cc 0839     		subs	r1, r1, #8
 624 00ce 0129     		cmp	r1, #1
 625 00d0 F0D8     		bhi	.L127
 626 00d2 0232     		adds	r2, r2, #2
 627 00d4 DCB2     		uxtb	r4, r3
ARM GAS  C:\Users\DMA\AppData\Local\Temp\ccs4bZ5s.s 			page 12


 628 00d6 D3B2     		uxtb	r3, r2
 629 00d8 9C42     		cmp	r4, r3
 630 00da 0ED9     		bls	.L90
 631 00dc 0278     		ldrb	r2, [r0]
 632 00de 1E00     		movs	r6, r3
 633 00e0 002A     		cmp	r2, #0
 634 00e2 04D1     		bne	.L96
 635 00e4 13E0     		b	.L95
 636              	.L128:
 637 00e6 9A1B     		subs	r2, r3, r6
 638 00e8 825C     		ldrb	r2, [r0, r2]
 639 00ea 002A     		cmp	r2, #0
 640 00ec 0FD0     		beq	.L95
 641              	.L96:
 642 00ee E918     		adds	r1, r5, r3
 643 00f0 0133     		adds	r3, r3, #1
 644 00f2 DBB2     		uxtb	r3, r3
 645 00f4 0A71     		strb	r2, [r1, #4]
 646 00f6 9C42     		cmp	r4, r3
 647 00f8 F5D8     		bhi	.L128
 648              	.L90:
 649 00fa 0020     		movs	r0, #0
 650              	.L123:
 651              		@ sp needed
 652 00fc F0BD     		pop	{r4, r5, r6, r7, pc}
 653              	.L86:
 654 00fe 0021     		movs	r1, #0
 655              	.L88:
 656 0100 EA18     		adds	r2, r5, r3
 657 0102 0133     		adds	r3, r3, #1
 658 0104 DBB2     		uxtb	r3, r3
 659 0106 1175     		strb	r1, [r2, #20]
 660 0108 9C42     		cmp	r4, r3
 661 010a F9D8     		bhi	.L88
 662 010c C7E7     		b	.L80
 663              	.L95:
 664 010e 0021     		movs	r1, #0
 665              	.L97:
 666 0110 EA18     		adds	r2, r5, r3
 667 0112 0133     		adds	r3, r3, #1
 668 0114 DBB2     		uxtb	r3, r3
 669 0116 1171     		strb	r1, [r2, #4]
 670 0118 9C42     		cmp	r4, r3
 671 011a F9D8     		bhi	.L97
 672 011c EDE7     		b	.L90
 673              	.L101:
 674 011e 0023     		movs	r3, #0
 675              	.L78:
 676 0120 0022     		movs	r2, #0
 677 0122 E254     		strb	r2, [r4, r3]
 678 0124 8DE7     		b	.L98
 679              	.L100:
 680 0126 0120     		movs	r0, #1
 681 0128 E8E7     		b	.L123
 682              	.L130:
 683 012a C046     		.align	2
 684              	.L129:
ARM GAS  C:\Users\DMA\AppData\Local\Temp\ccs4bZ5s.s 			page 13


 685 012c 00000000 		.word	cyBle_gaps
 686 0130 00000000 		.word	cyBle_gattDB
 687 0134 00000000 		.word	.LANCHOR3
 688 0138 00000000 		.word	.LANCHOR1
 689              		.size	CyBle_GapSetLocalName, .-CyBle_GapSetLocalName
 690              		.section	.text.CyBle_GapGetLocalName,"ax",%progbits
 691              		.align	2
 692              		.global	CyBle_GapGetLocalName
 693              		.code	16
 694              		.thumb_func
 695              		.type	CyBle_GapGetLocalName, %function
 696              	CyBle_GapGetLocalName:
 697              		@ args = 0, pretend = 0, frame = 0
 698              		@ frame_needed = 0, uses_anonymous_args = 0
 699 0000 70B5     		push	{r4, r5, r6, lr}
 700 0002 0028     		cmp	r0, #0
 701 0004 22D0     		beq	.L136
 702 0006 134B     		ldr	r3, .L140
 703 0008 5B88     		ldrh	r3, [r3, #2]
 704 000a 013B     		subs	r3, r3, #1
 705 000c 9A00     		lsls	r2, r3, #2
 706 000e D318     		adds	r3, r2, r3
 707 0010 114A     		ldr	r2, .L140+4
 708 0012 9B00     		lsls	r3, r3, #2
 709 0014 D318     		adds	r3, r2, r3
 710 0016 1B69     		ldr	r3, [r3, #16]
 711 0018 1D78     		ldrb	r5, [r3]
 712 001a 5E68     		ldr	r6, [r3, #4]
 713 001c 002D     		cmp	r5, #0
 714 001e 17D0     		beq	.L138
 715 0020 3278     		ldrb	r2, [r6]
 716 0022 002A     		cmp	r2, #0
 717 0024 14D0     		beq	.L138
 718 0026 0100     		movs	r1, r0
 719 0028 0123     		movs	r3, #1
 720 002a 05E0     		b	.L135
 721              	.L134:
 722 002c F25C     		ldrb	r2, [r6, r3]
 723 002e 5C1C     		adds	r4, r3, #1
 724 0030 0131     		adds	r1, r1, #1
 725 0032 002A     		cmp	r2, #0
 726 0034 06D0     		beq	.L133
 727 0036 2300     		movs	r3, r4
 728              	.L135:
 729 0038 0A70     		strb	r2, [r1]
 730 003a DAB2     		uxtb	r2, r3
 731 003c 9542     		cmp	r5, r2
 732 003e F5D8     		bhi	.L134
 733 0040 FF22     		movs	r2, #255
 734 0042 1340     		ands	r3, r2
 735              	.L133:
 736 0044 0022     		movs	r2, #0
 737 0046 C254     		strb	r2, [r0, r3]
 738 0048 0020     		movs	r0, #0
 739              	.L132:
 740              		@ sp needed
 741 004a 70BD     		pop	{r4, r5, r6, pc}
ARM GAS  C:\Users\DMA\AppData\Local\Temp\ccs4bZ5s.s 			page 14


 742              	.L136:
 743 004c 0120     		movs	r0, #1
 744 004e FCE7     		b	.L132
 745              	.L138:
 746 0050 0023     		movs	r3, #0
 747 0052 F7E7     		b	.L133
 748              	.L141:
 749              		.align	2
 750              	.L140:
 751 0054 00000000 		.word	cyBle_gaps
 752 0058 00000000 		.word	cyBle_gattDB
 753              		.size	CyBle_GapGetLocalName, .-CyBle_GapGetLocalName
 754              		.section	.text.CyBle_Get16ByPtr,"ax",%progbits
 755              		.align	2
 756              		.global	CyBle_Get16ByPtr
 757              		.code	16
 758              		.thumb_func
 759              		.type	CyBle_Get16ByPtr, %function
 760              	CyBle_Get16ByPtr:
 761              		@ args = 0, pretend = 0, frame = 0
 762              		@ frame_needed = 0, uses_anonymous_args = 0
 763              		@ link register save eliminated.
 764 0000 0378     		ldrb	r3, [r0]
 765 0002 4078     		ldrb	r0, [r0, #1]
 766              		@ sp needed
 767 0004 0002     		lsls	r0, r0, #8
 768 0006 1843     		orrs	r0, r3
 769 0008 7047     		bx	lr
 770              		.size	CyBle_Get16ByPtr, .-CyBle_Get16ByPtr
 771 000a C046     		.section	.text.CyBle_Set16ByPtr,"ax",%progbits
 772              		.align	2
 773              		.global	CyBle_Set16ByPtr
 774              		.code	16
 775              		.thumb_func
 776              		.type	CyBle_Set16ByPtr, %function
 777              	CyBle_Set16ByPtr:
 778              		@ args = 0, pretend = 0, frame = 0
 779              		@ frame_needed = 0, uses_anonymous_args = 0
 780              		@ link register save eliminated.
 781 0000 0170     		strb	r1, [r0]
 782 0002 090A     		lsrs	r1, r1, #8
 783 0004 4170     		strb	r1, [r0, #1]
 784              		@ sp needed
 785 0006 7047     		bx	lr
 786              		.size	CyBle_Set16ByPtr, .-CyBle_Set16ByPtr
 787              		.global	cyBle_sflashDeviceAddress
 788              		.global	cyBle_deviceAddress
 789              		.comm	CyBle_ApplCallback,4,4
 790              		.comm	cyBle_pendingFlashWrite,1,1
 791              		.comm	cyBle_peerBonding,1,1
 792              		.global	cyBle_discoveryModeInfo
 793              		.global	cyBle_scanRspData
 794              		.global	cyBle_discoveryData
 795              		.global	cyBle_discoveryParam
 796              		.global	cyBle_stackMemoryRam
 797              		.global	cyBle_initVar
 798              		.section	.rodata
ARM GAS  C:\Users\DMA\AppData\Local\Temp\ccs4bZ5s.s 			page 15


 799              		.align	2
 800              		.set	.LANCHOR0,. + 0
 801              	.LC0:
 802 0000 2400     		.short	36
 803 0002 03       		.byte	3
 804 0003 00       		.space	1
 805 0004 3000     		.short	48
 806 0006 01       		.byte	1
 807 0007 00       		.space	1
 808 0008 2800     		.short	40
 809 000a 02       		.byte	2
 810 000b 00       		.space	1
 811 000c 2400     		.short	36
 812 000e 01       		.byte	1
 813 000f 00       		.space	1
 814 0010 2400     		.short	36
 815 0012 01       		.byte	1
 816 0013 00       		.space	1
 817              		.data
 818              		.align	2
 819              		.set	.LANCHOR3,. + 0
 820              		.type	cyBle_discoveryModeInfo, %object
 821              		.size	cyBle_discoveryModeInfo, 20
 822              	cyBle_discoveryModeInfo:
 823 0000 02       		.byte	2
 824 0001 000000   		.space	3
 825 0004 00000000 		.word	cyBle_discoveryParam
 826 0008 00000000 		.word	cyBle_discoveryData
 827 000c 00000000 		.word	cyBle_scanRspData
 828 0010 1E00     		.short	30
 829 0012 0000     		.space	2
 830              		.type	cyBle_discoveryData, %object
 831              		.size	cyBle_discoveryData, 32
 832              	cyBle_discoveryData:
 833 0014 02       		.byte	2
 834 0015 01       		.byte	1
 835 0016 06       		.byte	6
 836 0017 0C       		.byte	12
 837 0018 09       		.byte	9
 838 0019 43       		.byte	67
 839 001a 6F       		.byte	111
 840 001b 6D       		.byte	109
 841 001c 6D       		.byte	109
 842 001d 6F       		.byte	111
 843 001e 6E       		.byte	110
 844 001f 53       		.byte	83
 845 0020 65       		.byte	101
 846 0021 6E       		.byte	110
 847 0022 73       		.byte	115
 848 0023 65       		.byte	101
 849 0024 03       		.byte	3
 850 0025 19       		.byte	25
 851 0026 C1       		.byte	-63
 852 0027 03       		.byte	3
 853 0028 00       		.byte	0
 854 0029 00       		.byte	0
 855 002a 00       		.byte	0
ARM GAS  C:\Users\DMA\AppData\Local\Temp\ccs4bZ5s.s 			page 16


 856 002b 00       		.byte	0
 857 002c 00       		.byte	0
 858 002d 00       		.byte	0
 859 002e 00       		.byte	0
 860 002f 00       		.byte	0
 861 0030 00       		.byte	0
 862 0031 00       		.byte	0
 863 0032 00       		.byte	0
 864 0033 14       		.byte	20
 865              		.type	cyBle_sflashDeviceAddress, %object
 866              		.size	cyBle_sflashDeviceAddress, 4
 867              	cyBle_sflashDeviceAddress:
 868 0034 00F4FF0F 		.word	268432384
 869              		.type	cyBle_deviceAddress, %object
 870              		.size	cyBle_deviceAddress, 7
 871              	cyBle_deviceAddress:
 872 0038 08       		.byte	8
 873 0039 00       		.byte	0
 874 003a 00       		.byte	0
 875 003b 50       		.byte	80
 876 003c A0       		.byte	-96
 877 003d 00       		.byte	0
 878 003e 00       		.byte	0
 879 003f 00       		.space	1
 880              		.type	cyBle_discoveryParam, %object
 881              		.size	cyBle_discoveryParam, 16
 882              	cyBle_discoveryParam:
 883 0040 2000     		.short	32
 884 0042 2000     		.short	32
 885 0044 00       		.byte	0
 886 0045 00       		.byte	0
 887 0046 00       		.byte	0
 888 0047 08       		.byte	8
 889 0048 00       		.byte	0
 890 0049 00       		.byte	0
 891 004a 50       		.byte	80
 892 004b A0       		.byte	-96
 893 004c 00       		.byte	0
 894 004d 07       		.byte	7
 895 004e 00       		.byte	0
 896 004f 00       		.space	1
 897              		.section	.noinit,"aw",%progbits
 898              		.align	3
 899              		.set	.LANCHOR2,. + 0
 900              		.type	cyBle_stackMemoryRam, %object
 901              		.size	cyBle_stackMemoryRam, 2912
 902              	cyBle_stackMemoryRam:
 903 0000 00000000 		.space	2912
 903      00000000 
 903      00000000 
 903      00000000 
 903      00000000 
 904              		.bss
 905              		.align	2
 906              		.set	.LANCHOR1,. + 0
 907              		.type	cyBle_initVar, %object
 908              		.size	cyBle_initVar, 1
ARM GAS  C:\Users\DMA\AppData\Local\Temp\ccs4bZ5s.s 			page 17


 909              	cyBle_initVar:
 910 0000 00       		.space	1
 911              		.type	cyBle_pendingFlashClearCccdHandle, %object
 912              		.size	cyBle_pendingFlashClearCccdHandle, 1
 913              	cyBle_pendingFlashClearCccdHandle:
 914 0001 00       		.space	1
 915 0002 0000     		.space	2
 916              		.type	cyBle_scanRspData, %object
 917              		.size	cyBle_scanRspData, 32
 918              	cyBle_scanRspData:
 919 0004 00000000 		.space	32
 919      00000000 
 919      00000000 
 919      00000000 
 919      00000000 
 920              		.ident	"GCC: (GNU Tools for ARM Embedded Processors) 5.4.1 20160609 (release) [ARM/embedded-5-bran
