ARM GAS  C:\Users\DMA\AppData\Local\Temp\ccWrN0C1.s 			page 1


   1              		.syntax unified
   2              		.cpu cortex-m0
   3              		.fpu softvfp
   4              		.eabi_attribute 20, 1
   5              		.eabi_attribute 21, 1
   6              		.eabi_attribute 23, 3
   7              		.eabi_attribute 24, 1
   8              		.eabi_attribute 25, 1
   9              		.eabi_attribute 26, 1
  10              		.eabi_attribute 30, 2
  11              		.eabi_attribute 34, 0
  12              		.eabi_attribute 18, 4
  13              		.thumb
  14              		.syntax unified
  15              		.file	"BLE_hids.c"
  16              		.section	.text.CyBle_HidsInit,"ax",%progbits
  17              		.align	2
  18              		.global	CyBle_HidsInit
  19              		.code	16
  20              		.thumb_func
  21              		.type	CyBle_HidsInit, %function
  22              	CyBle_HidsInit:
  23              		@ args = 0, pretend = 0, frame = 0
  24              		@ frame_needed = 0, uses_anonymous_args = 0
  25              		@ link register save eliminated.
  26              		@ sp needed
  27 0000 7047     		bx	lr
  28              		.size	CyBle_HidsInit, .-CyBle_HidsInit
  29 0002 C046     		.section	.text.CyBle_HidsRegisterAttrCallback,"ax",%progbits
  30              		.align	2
  31              		.global	CyBle_HidsRegisterAttrCallback
  32              		.code	16
  33              		.thumb_func
  34              		.type	CyBle_HidsRegisterAttrCallback, %function
  35              	CyBle_HidsRegisterAttrCallback:
  36              		@ args = 0, pretend = 0, frame = 0
  37              		@ frame_needed = 0, uses_anonymous_args = 0
  38              		@ link register save eliminated.
  39 0000 014B     		ldr	r3, .L3
  40              		@ sp needed
  41 0002 1860     		str	r0, [r3]
  42 0004 7047     		bx	lr
  43              	.L4:
  44 0006 C046     		.align	2
  45              	.L3:
  46 0008 00000000 		.word	.LANCHOR0
  47              		.size	CyBle_HidsRegisterAttrCallback, .-CyBle_HidsRegisterAttrCallback
  48              		.section	.text.CyBle_HidssSetCharacteristicValue,"ax",%progbits
  49              		.align	2
  50              		.global	CyBle_HidssSetCharacteristicValue
  51              		.code	16
  52              		.thumb_func
  53              		.type	CyBle_HidssSetCharacteristicValue, %function
  54              	CyBle_HidssSetCharacteristicValue:
  55              		@ args = 0, pretend = 0, frame = 16
  56              		@ frame_needed = 0, uses_anonymous_args = 0
  57 0000 70B5     		push	{r4, r5, r6, lr}
ARM GAS  C:\Users\DMA\AppData\Local\Temp\ccWrN0C1.s 			page 2


  58 0002 0125     		movs	r5, #1
  59 0004 84B0     		sub	sp, sp, #16
  60 0006 0228     		cmp	r0, #2
  61 0008 1CD8     		bhi	.L6
  62 000a 0829     		cmp	r1, #8
  63 000c 1AD8     		bhi	.L6
  64 000e 0629     		cmp	r1, #6
  65 0010 33D8     		bhi	.L7
  66 0012 234C     		ldr	r4, .L23
  67 0014 8900     		lsls	r1, r1, #2
  68 0016 6158     		ldr	r1, [r4, r1]
  69 0018 8400     		lsls	r4, r0, #2
  70 001a 2018     		adds	r0, r4, r0
  71 001c C000     		lsls	r0, r0, #3
  72 001e 8F46     		mov	pc, r1
  73              		.section	.rodata
  74              		.align	2
  75              	.L9:
  76 0000 52000000 		.word	.L8
  77 0004 5A000000 		.word	.L10
  78 0008 62000000 		.word	.L11
  79 000c 6A000000 		.word	.L12
  80 0010 72000000 		.word	.L13
  81 0014 20000000 		.word	.L14
  82 0018 4A000000 		.word	.L15
  83              		.section	.text.CyBle_HidssSetCharacteristicValue
  84              	.L14:
  85 0020 2049     		ldr	r1, .L23+4
  86 0022 0818     		adds	r0, r1, r0
  87 0024 418A     		ldrh	r1, [r0, #18]
  88              	.L16:
  89 0026 1325     		movs	r5, #19
  90 0028 0029     		cmp	r1, #0
  91 002a 0BD0     		beq	.L6
  92 002c 01A8     		add	r0, sp, #4
  93 002e 0181     		strh	r1, [r0, #8]
  94 0030 8280     		strh	r2, [r0, #4]
  95 0032 0193     		str	r3, [sp, #4]
  96 0034 0022     		movs	r2, #0
  97 0036 0023     		movs	r3, #0
  98 0038 0021     		movs	r1, #0
  99 003a FFF7FEFF 		bl	CyBle_GattsWriteAttributeValue
 100 003e 451E     		subs	r5, r0, #1
 101 0040 A841     		sbcs	r0, r0, r5
 102 0042 85B2     		uxth	r5, r0
 103              	.L6:
 104 0044 2800     		movs	r0, r5
 105 0046 04B0     		add	sp, sp, #16
 106              		@ sp needed
 107 0048 70BD     		pop	{r4, r5, r6, pc}
 108              	.L15:
 109 004a 1649     		ldr	r1, .L23+4
 110 004c 0818     		adds	r0, r1, r0
 111 004e 018B     		ldrh	r1, [r0, #24]
 112 0050 E9E7     		b	.L16
 113              	.L8:
 114 0052 1449     		ldr	r1, .L23+4
ARM GAS  C:\Users\DMA\AppData\Local\Temp\ccWrN0C1.s 			page 3


 115 0054 0818     		adds	r0, r1, r0
 116 0056 4188     		ldrh	r1, [r0, #2]
 117 0058 E5E7     		b	.L16
 118              	.L10:
 119 005a 1249     		ldr	r1, .L23+4
 120 005c 0818     		adds	r0, r1, r0
 121 005e 418C     		ldrh	r1, [r0, #34]
 122 0060 E1E7     		b	.L16
 123              	.L11:
 124 0062 1049     		ldr	r1, .L23+4
 125 0064 0818     		adds	r0, r1, r0
 126 0066 818C     		ldrh	r1, [r0, #36]
 127 0068 DDE7     		b	.L16
 128              	.L12:
 129 006a 0E49     		ldr	r1, .L23+4
 130 006c 0818     		adds	r0, r1, r0
 131 006e C18B     		ldrh	r1, [r0, #30]
 132 0070 D9E7     		b	.L16
 133              	.L13:
 134 0072 0C49     		ldr	r1, .L23+4
 135 0074 0818     		adds	r0, r1, r0
 136 0076 8189     		ldrh	r1, [r0, #12]
 137 0078 D5E7     		b	.L16
 138              	.L7:
 139 007a 8400     		lsls	r4, r0, #2
 140 007c 2018     		adds	r0, r4, r0
 141 007e 094C     		ldr	r4, .L23+4
 142 0080 C000     		lsls	r0, r0, #3
 143 0082 2418     		adds	r4, r4, r0
 144 0084 2079     		ldrb	r0, [r4, #4]
 145 0086 8E1F     		subs	r6, r1, #6
 146 0088 1325     		movs	r5, #19
 147 008a 8642     		cmp	r6, r0
 148 008c DADC     		bgt	.L6
 149 008e A068     		ldr	r0, [r4, #8]
 150 0090 4C00     		lsls	r4, r1, #1
 151 0092 6118     		adds	r1, r4, r1
 152 0094 4900     		lsls	r1, r1, #1
 153 0096 4118     		adds	r1, r0, r1
 154 0098 2A39     		subs	r1, r1, #42
 155 009a 0988     		ldrh	r1, [r1]
 156 009c C3E7     		b	.L16
 157              	.L24:
 158 009e C046     		.align	2
 159              	.L23:
 160 00a0 00000000 		.word	.L9
 161 00a4 38000000 		.word	.LANCHOR1
 162              		.size	CyBle_HidssSetCharacteristicValue, .-CyBle_HidssSetCharacteristicValue
 163              		.section	.text.CyBle_HidssGetCharacteristicValue,"ax",%progbits
 164              		.align	2
 165              		.global	CyBle_HidssGetCharacteristicValue
 166              		.code	16
 167              		.thumb_func
 168              		.type	CyBle_HidssGetCharacteristicValue, %function
 169              	CyBle_HidssGetCharacteristicValue:
 170              		@ args = 0, pretend = 0, frame = 16
 171              		@ frame_needed = 0, uses_anonymous_args = 0
ARM GAS  C:\Users\DMA\AppData\Local\Temp\ccWrN0C1.s 			page 4


 172 0000 70B5     		push	{r4, r5, r6, lr}
 173 0002 0125     		movs	r5, #1
 174 0004 84B0     		sub	sp, sp, #16
 175 0006 0228     		cmp	r0, #2
 176 0008 1BD8     		bhi	.L26
 177 000a 0829     		cmp	r1, #8
 178 000c 19D8     		bhi	.L26
 179 000e 0629     		cmp	r1, #6
 180 0010 32D8     		bhi	.L27
 181 0012 224C     		ldr	r4, .L42
 182 0014 8900     		lsls	r1, r1, #2
 183 0016 6158     		ldr	r1, [r4, r1]
 184 0018 8400     		lsls	r4, r0, #2
 185 001a 2018     		adds	r0, r4, r0
 186 001c C000     		lsls	r0, r0, #3
 187 001e 8F46     		mov	pc, r1
 188              		.section	.rodata
 189              		.align	2
 190              	.L29:
 191 001c 50000000 		.word	.L28
 192 0020 58000000 		.word	.L30
 193 0024 60000000 		.word	.L31
 194 0028 68000000 		.word	.L32
 195 002c 70000000 		.word	.L33
 196 0030 20000000 		.word	.L34
 197 0034 48000000 		.word	.L35
 198              		.section	.text.CyBle_HidssGetCharacteristicValue
 199              	.L34:
 200 0020 1F49     		ldr	r1, .L42+4
 201 0022 0818     		adds	r0, r1, r0
 202 0024 418A     		ldrh	r1, [r0, #18]
 203              	.L36:
 204 0026 1325     		movs	r5, #19
 205 0028 0029     		cmp	r1, #0
 206 002a 0AD0     		beq	.L26
 207 002c 01A8     		add	r0, sp, #4
 208 002e 0181     		strh	r1, [r0, #8]
 209 0030 8280     		strh	r2, [r0, #4]
 210 0032 0021     		movs	r1, #0
 211 0034 0022     		movs	r2, #0
 212 0036 0193     		str	r3, [sp, #4]
 213 0038 FFF7FEFF 		bl	CyBle_GattsReadAttributeValue
 214 003c 451E     		subs	r5, r0, #1
 215 003e A841     		sbcs	r0, r0, r5
 216 0040 85B2     		uxth	r5, r0
 217              	.L26:
 218 0042 2800     		movs	r0, r5
 219 0044 04B0     		add	sp, sp, #16
 220              		@ sp needed
 221 0046 70BD     		pop	{r4, r5, r6, pc}
 222              	.L35:
 223 0048 1549     		ldr	r1, .L42+4
 224 004a 0818     		adds	r0, r1, r0
 225 004c 018B     		ldrh	r1, [r0, #24]
 226 004e EAE7     		b	.L36
 227              	.L28:
 228 0050 1349     		ldr	r1, .L42+4
ARM GAS  C:\Users\DMA\AppData\Local\Temp\ccWrN0C1.s 			page 5


 229 0052 0818     		adds	r0, r1, r0
 230 0054 4188     		ldrh	r1, [r0, #2]
 231 0056 E6E7     		b	.L36
 232              	.L30:
 233 0058 1149     		ldr	r1, .L42+4
 234 005a 0818     		adds	r0, r1, r0
 235 005c 418C     		ldrh	r1, [r0, #34]
 236 005e E2E7     		b	.L36
 237              	.L31:
 238 0060 0F49     		ldr	r1, .L42+4
 239 0062 0818     		adds	r0, r1, r0
 240 0064 818C     		ldrh	r1, [r0, #36]
 241 0066 DEE7     		b	.L36
 242              	.L32:
 243 0068 0D49     		ldr	r1, .L42+4
 244 006a 0818     		adds	r0, r1, r0
 245 006c C18B     		ldrh	r1, [r0, #30]
 246 006e DAE7     		b	.L36
 247              	.L33:
 248 0070 0B49     		ldr	r1, .L42+4
 249 0072 0818     		adds	r0, r1, r0
 250 0074 8189     		ldrh	r1, [r0, #12]
 251 0076 D6E7     		b	.L36
 252              	.L27:
 253 0078 8400     		lsls	r4, r0, #2
 254 007a 2018     		adds	r0, r4, r0
 255 007c 084C     		ldr	r4, .L42+4
 256 007e C000     		lsls	r0, r0, #3
 257 0080 2418     		adds	r4, r4, r0
 258 0082 2079     		ldrb	r0, [r4, #4]
 259 0084 8E1F     		subs	r6, r1, #6
 260 0086 1325     		movs	r5, #19
 261 0088 8642     		cmp	r6, r0
 262 008a DADC     		bgt	.L26
 263 008c A068     		ldr	r0, [r4, #8]
 264 008e 4C00     		lsls	r4, r1, #1
 265 0090 6118     		adds	r1, r4, r1
 266 0092 4900     		lsls	r1, r1, #1
 267 0094 4118     		adds	r1, r0, r1
 268 0096 2A39     		subs	r1, r1, #42
 269 0098 0988     		ldrh	r1, [r1]
 270 009a C4E7     		b	.L36
 271              	.L43:
 272              		.align	2
 273              	.L42:
 274 009c 1C000000 		.word	.L29
 275 00a0 38000000 		.word	.LANCHOR1
 276              		.size	CyBle_HidssGetCharacteristicValue, .-CyBle_HidssGetCharacteristicValue
 277              		.section	.text.CyBle_HidssGetCharacteristicDescriptor,"ax",%progbits
 278              		.align	2
 279              		.global	CyBle_HidssGetCharacteristicDescriptor
 280              		.code	16
 281              		.thumb_func
 282              		.type	CyBle_HidssGetCharacteristicDescriptor, %function
 283              	CyBle_HidssGetCharacteristicDescriptor:
 284              		@ args = 4, pretend = 0, frame = 16
 285              		@ frame_needed = 0, uses_anonymous_args = 0
ARM GAS  C:\Users\DMA\AppData\Local\Temp\ccWrN0C1.s 			page 6


 286 0000 30B5     		push	{r4, r5, lr}
 287 0002 0400     		movs	r4, r0
 288 0004 85B0     		sub	sp, sp, #20
 289 0006 0120     		movs	r0, #1
 290 0008 022C     		cmp	r4, #2
 291 000a 28D8     		bhi	.L59
 292 000c 022A     		cmp	r2, #2
 293 000e 26D8     		bhi	.L59
 294 0010 CD1E     		subs	r5, r1, #3
 295 0012 052D     		cmp	r5, #5
 296 0014 23D8     		bhi	.L59
 297 0016 0529     		cmp	r1, #5
 298 0018 21D0     		beq	.L59
 299 001a 0329     		cmp	r1, #3
 300 001c 32D0     		beq	.L62
 301 001e 081F     		subs	r0, r1, #4
 302 0020 C5B2     		uxtb	r5, r0
 303 0022 022D     		cmp	r5, #2
 304 0024 1DD8     		bhi	.L48
 305 0026 4100     		lsls	r1, r0, #1
 306 0028 0918     		adds	r1, r1, r0
 307 002a A000     		lsls	r0, r4, #2
 308 002c 0419     		adds	r4, r0, r4
 309 002e E400     		lsls	r4, r4, #3
 310 0030 4900     		lsls	r1, r1, #1
 311 0032 0919     		adds	r1, r1, r4
 312 0034 184C     		ldr	r4, .L63
 313 0036 6118     		adds	r1, r4, r1
 314 0038 0C31     		adds	r1, r1, #12
 315              	.L49:
 316 003a 002A     		cmp	r2, #0
 317 003c 1DD1     		bne	.L50
 318 003e 4A88     		ldrh	r2, [r1, #2]
 319              	.L47:
 320 0040 1320     		movs	r0, #19
 321 0042 002A     		cmp	r2, #0
 322 0044 0BD0     		beq	.L59
 323 0046 01A8     		add	r0, sp, #4
 324 0048 8380     		strh	r3, [r0, #4]
 325 004a 089B     		ldr	r3, [sp, #32]
 326 004c 0281     		strh	r2, [r0, #8]
 327 004e 0021     		movs	r1, #0
 328 0050 0022     		movs	r2, #0
 329 0052 0193     		str	r3, [sp, #4]
 330 0054 FFF7FEFF 		bl	CyBle_GattsReadAttributeValue
 331 0058 431E     		subs	r3, r0, #1
 332 005a 9841     		sbcs	r0, r0, r3
 333 005c 80B2     		uxth	r0, r0
 334              	.L59:
 335 005e 05B0     		add	sp, sp, #20
 336              		@ sp needed
 337 0060 30BD     		pop	{r4, r5, pc}
 338              	.L48:
 339 0062 A000     		lsls	r0, r4, #2
 340 0064 0419     		adds	r4, r0, r4
 341 0066 0C48     		ldr	r0, .L63
 342 0068 E400     		lsls	r4, r4, #3
ARM GAS  C:\Users\DMA\AppData\Local\Temp\ccWrN0C1.s 			page 7


 343 006a 0419     		adds	r4, r0, r4
 344 006c 4800     		lsls	r0, r1, #1
 345 006e 4118     		adds	r1, r0, r1
 346 0070 4900     		lsls	r1, r1, #1
 347 0072 A068     		ldr	r0, [r4, #8]
 348 0074 2A39     		subs	r1, r1, #42
 349 0076 4118     		adds	r1, r0, r1
 350 0078 DFE7     		b	.L49
 351              	.L50:
 352 007a 0120     		movs	r0, #1
 353 007c 012A     		cmp	r2, #1
 354 007e EED1     		bne	.L59
 355 0080 8A88     		ldrh	r2, [r1, #4]
 356 0082 DDE7     		b	.L47
 357              	.L62:
 358 0084 022A     		cmp	r2, #2
 359 0086 EAD1     		bne	.L59
 360 0088 A200     		lsls	r2, r4, #2
 361 008a 1419     		adds	r4, r2, r4
 362 008c 024A     		ldr	r2, .L63
 363 008e E400     		lsls	r4, r4, #3
 364 0090 1219     		adds	r2, r2, r4
 365 0092 128C     		ldrh	r2, [r2, #32]
 366 0094 D4E7     		b	.L47
 367              	.L64:
 368 0096 C046     		.align	2
 369              	.L63:
 370 0098 38000000 		.word	.LANCHOR1
 371              		.size	CyBle_HidssGetCharacteristicDescriptor, .-CyBle_HidssGetCharacteristicDescriptor
 372              		.section	.text.CyBle_HidssWriteEventHandler,"ax",%progbits
 373              		.align	2
 374              		.global	CyBle_HidssWriteEventHandler
 375              		.code	16
 376              		.thumb_func
 377              		.type	CyBle_HidssWriteEventHandler, %function
 378              	CyBle_HidssWriteEventHandler:
 379              		@ args = 0, pretend = 0, frame = 24
 380              		@ frame_needed = 0, uses_anonymous_args = 0
 381 0000 F0B5     		push	{r4, r5, r6, r7, lr}
 382 0002 5F46     		mov	r7, fp
 383 0004 5646     		mov	r6, r10
 384 0006 4D46     		mov	r5, r9
 385 0008 4446     		mov	r4, r8
 386 000a F0B4     		push	{r4, r5, r6, r7}
 387 000c 9C4B     		ldr	r3, .L139
 388 000e 87B0     		sub	sp, sp, #28
 389 0010 9B46     		mov	fp, r3
 390 0012 1B68     		ldr	r3, [r3]
 391 0014 0600     		movs	r6, r0
 392 0016 002B     		cmp	r3, #0
 393 0018 00D1     		bne	.LCB411
 394 001a 8CE0     		b	.L97	@long jump
 395              	.LCB411:
 396 001c 0388     		ldrh	r3, [r0]
 397 001e 04AA     		add	r2, sp, #16
 398 0020 1380     		strh	r3, [r2]
 399 0022 0023     		movs	r3, #0
ARM GAS  C:\Users\DMA\AppData\Local\Temp\ccWrN0C1.s 			page 8


 400 0024 0593     		str	r3, [sp, #20]
 401 0026 9A46     		mov	r10, r3
 402 0028 964B     		ldr	r3, .L139+4
 403 002a 0024     		movs	r4, #0
 404 002c 9846     		mov	r8, r3
 405 002e 0123     		movs	r3, #1
 406 0030 9946     		mov	r9, r3
 407 0032 954D     		ldr	r5, .L139+8
 408              	.L96:
 409 0034 04AB     		add	r3, sp, #16
 410 0036 9C70     		strb	r4, [r3, #2]
 411 0038 B389     		ldrh	r3, [r6, #12]
 412 003a 6A88     		ldrh	r2, [r5, #2]
 413 003c 9A42     		cmp	r2, r3
 414 003e 00D1     		bne	.LCB434
 415 0040 82E0     		b	.L130	@long jump
 416              	.LCB434:
 417 0042 AA8C     		ldrh	r2, [r5, #36]
 418 0044 9A42     		cmp	r2, r3
 419 0046 00D1     		bne	.LCB437
 420 0048 93E0     		b	.L131	@long jump
 421              	.LCB437:
 422 004a AA89     		ldrh	r2, [r5, #12]
 423 004c 9A42     		cmp	r2, r3
 424 004e 00D1     		bne	.LCB440
 425 0050 A4E0     		b	.L132	@long jump
 426              	.LCB440:
 427 0052 EA89     		ldrh	r2, [r5, #14]
 428 0054 9A42     		cmp	r2, r3
 429 0056 00D1     		bne	.LCB443
 430 0058 C7E0     		b	.L133	@long jump
 431              	.LCB443:
 432 005a 6A8A     		ldrh	r2, [r5, #18]
 433 005c 9A42     		cmp	r2, r3
 434 005e 00D1     		bne	.LCB446
 435 0060 BFE0     		b	.L134	@long jump
 436              	.LCB446:
 437 0062 2A8B     		ldrh	r2, [r5, #24]
 438 0064 9A42     		cmp	r2, r3
 439 0066 00D1     		bne	.LCB449
 440 0068 BDE0     		b	.L135	@long jump
 441              	.LCB449:
 442 006a 6A8B     		ldrh	r2, [r5, #26]
 443 006c 9A42     		cmp	r2, r3
 444 006e 00D1     		bne	.LCB452
 445 0070 C9E0     		b	.L80	@long jump
 446              	.LCB452:
 447 0072 2A79     		ldrb	r2, [r5, #4]
 448 0074 002A     		cmp	r2, #0
 449 0076 53D0     		beq	.L69
 450 0078 0732     		adds	r2, r2, #7
 451 007a D2B2     		uxtb	r2, r2
 452 007c 9446     		mov	ip, r2
 453 007e 0022     		movs	r2, #0
 454 0080 6046     		mov	r0, ip
 455 0082 04A9     		add	r1, sp, #16
 456 0084 C978     		ldrb	r1, [r1, #3]
ARM GAS  C:\Users\DMA\AppData\Local\Temp\ccWrN0C1.s 			page 9


 457 0086 A446     		mov	ip, r4
 458 0088 0391     		str	r1, [sp, #12]
 459 008a 0599     		ldr	r1, [sp, #20]
 460 008c 0092     		str	r2, [sp]
 461 008e 0191     		str	r1, [sp, #4]
 462 0090 0292     		str	r2, [sp, #8]
 463 0092 A968     		ldr	r1, [r5, #8]
 464 0094 0732     		adds	r2, r2, #7
 465 0096 0400     		movs	r4, r0
 466 0098 0BE0     		b	.L92
 467              	.L83:
 468 009a 4F88     		ldrh	r7, [r1, #2]
 469 009c 9F42     		cmp	r7, r3
 470 009e 1ED0     		beq	.L136
 471              	.L84:
 472 00a0 0132     		adds	r2, r2, #1
 473 00a2 D2B2     		uxtb	r2, r2
 474 00a4 A242     		cmp	r2, r4
 475 00a6 00D1     		bne	.LCB484
 476 00a8 D7E0     		b	.L129	@long jump
 477              	.LCB484:
 478 00aa 0631     		adds	r1, r1, #6
 479 00ac 0028     		cmp	r0, #0
 480 00ae 00D0     		beq	.LCB487
 481 00b0 D3E0     		b	.L129	@long jump
 482              	.LCB487:
 483              	.L92:
 484 00b2 0F88     		ldrh	r7, [r1]
 485 00b4 0020     		movs	r0, #0
 486 00b6 9F42     		cmp	r7, r3
 487 00b8 EFD1     		bne	.L83
 488 00ba 301D     		adds	r0, r6, #4
 489 00bc 0190     		str	r0, [sp, #4]
 490 00be 4046     		mov	r0, r8
 491 00c0 4F46     		mov	r7, r9
 492 00c2 0078     		ldrb	r0, [r0]
 493 00c4 0392     		str	r2, [sp, #12]
 494 00c6 B843     		bics	r0, r7
 495 00c8 4746     		mov	r7, r8
 496 00ca 3870     		strb	r0, [r7]
 497 00cc 9C27     		movs	r7, #156
 498 00ce 0120     		movs	r0, #1
 499 00d0 FF37     		adds	r7, r7, #255
 500 00d2 BA46     		mov	r10, r7
 501 00d4 4F88     		ldrh	r7, [r1, #2]
 502 00d6 0090     		str	r0, [sp]
 503 00d8 0290     		str	r0, [sp, #8]
 504 00da 9F42     		cmp	r7, r3
 505 00dc E0D1     		bne	.L84
 506              	.L136:
 507 00de 009B     		ldr	r3, [sp]
 508 00e0 6446     		mov	r4, ip
 509 00e2 002B     		cmp	r3, #0
 510 00e4 00D0     		beq	.LCB517
 511 00e6 C7E0     		b	.L137	@long jump
 512              	.LCB517:
 513              	.L86:
ARM GAS  C:\Users\DMA\AppData\Local\Temp\ccWrN0C1.s 			page 10


 514 00e8 04AB     		add	r3, sp, #16
 515 00ea DA70     		strb	r2, [r3, #3]
 516              	.L127:
 517 00ec 7068     		ldr	r0, [r6, #4]
 518 00ee FFF7FEFF 		bl	CyBle_Get16ByPtr
 519 00f2 4B46     		mov	r3, r9
 520 00f4 0340     		ands	r3, r0
 521 00f6 5842     		rsbs	r0, r3, #0
 522 00f8 5841     		adcs	r0, r0, r3
 523 00fa 9623     		movs	r3, #150
 524 00fc FF33     		adds	r3, r3, #255
 525 00fe 9A46     		mov	r10, r3
 526 0100 4346     		mov	r3, r8
 527 0102 4A46     		mov	r2, r9
 528 0104 1B78     		ldrb	r3, [r3]
 529 0106 8244     		add	r10, r10, r0
 530 0108 9343     		bics	r3, r2
 531 010a 4246     		mov	r2, r8
 532 010c 1370     		strb	r3, [r2]
 533 010e 5F4B     		ldr	r3, .L139+12
 534 0110 1B78     		ldrb	r3, [r3]
 535 0112 012B     		cmp	r3, #1
 536 0114 04D1     		bne	.L69
 537 0116 0223     		movs	r3, #2
 538 0118 5D4A     		ldr	r2, .L139+16
 539 011a 1178     		ldrb	r1, [r2]
 540 011c 0B43     		orrs	r3, r1
 541 011e 1370     		strb	r3, [r2]
 542              	.L69:
 543 0120 4346     		mov	r3, r8
 544 0122 4A46     		mov	r2, r9
 545 0124 1B78     		ldrb	r3, [r3]
 546 0126 0134     		adds	r4, r4, #1
 547 0128 E4B2     		uxtb	r4, r4
 548 012a 1A42     		tst	r2, r3
 549 012c 4BD0     		beq	.L138
 550              	.L95:
 551 012e 2835     		adds	r5, r5, #40
 552 0130 032C     		cmp	r4, #3
 553 0132 00D0     		beq	.LCB566
 554 0134 7EE7     		b	.L96	@long jump
 555              	.LCB566:
 556              	.L97:
 557 0136 0024     		movs	r4, #0
 558              	.L67:
 559 0138 2000     		movs	r0, r4
 560 013a 07B0     		add	sp, sp, #28
 561              		@ sp needed
 562 013c 3CBC     		pop	{r2, r3, r4, r5}
 563 013e 9046     		mov	r8, r2
 564 0140 9946     		mov	r9, r3
 565 0142 A246     		mov	r10, r4
 566 0144 AB46     		mov	fp, r5
 567 0146 F0BD     		pop	{r4, r5, r6, r7, pc}
 568              	.L130:
 569 0148 0023     		movs	r3, #0
 570 014a 04AA     		add	r2, sp, #16
ARM GAS  C:\Users\DMA\AppData\Local\Temp\ccWrN0C1.s 			page 11


 571 014c D370     		strb	r3, [r2, #3]
 572 014e 3389     		ldrh	r3, [r6, #8]
 573 0150 012B     		cmp	r3, #1
 574 0152 E5D1     		bne	.L69
 575 0154 7268     		ldr	r2, [r6, #4]
 576 0156 1278     		ldrb	r2, [r2]
 577 0158 002A     		cmp	r2, #0
 578 015a 4AD0     		beq	.L70
 579 015c 012A     		cmp	r2, #1
 580 015e DFD1     		bne	.L69
 581 0160 4346     		mov	r3, r8
 582 0162 1B78     		ldrb	r3, [r3]
 583 0164 9343     		bics	r3, r2
 584 0166 4246     		mov	r2, r8
 585 0168 1370     		strb	r3, [r2]
 586 016a CC23     		movs	r3, #204
 587 016c 5B00     		lsls	r3, r3, #1
 588 016e 9A46     		mov	r10, r3
 589 0170 D6E7     		b	.L69
 590              	.L131:
 591 0172 0223     		movs	r3, #2
 592 0174 04AA     		add	r2, sp, #16
 593 0176 D370     		strb	r3, [r2, #3]
 594 0178 3389     		ldrh	r3, [r6, #8]
 595 017a 012B     		cmp	r3, #1
 596 017c D0D1     		bne	.L69
 597 017e 7268     		ldr	r2, [r6, #4]
 598 0180 1278     		ldrb	r2, [r2]
 599 0182 002A     		cmp	r2, #0
 600 0184 5FD0     		beq	.L73
 601 0186 012A     		cmp	r2, #1
 602 0188 CAD1     		bne	.L69
 603 018a 4346     		mov	r3, r8
 604 018c 1B78     		ldrb	r3, [r3]
 605 018e 9343     		bics	r3, r2
 606 0190 4246     		mov	r2, r8
 607 0192 1370     		strb	r3, [r2]
 608 0194 CD23     		movs	r3, #205
 609 0196 5B00     		lsls	r3, r3, #1
 610 0198 9A46     		mov	r10, r3
 611 019a C1E7     		b	.L69
 612              	.L132:
 613 019c 0423     		movs	r3, #4
 614              	.L123:
 615 019e 04AA     		add	r2, sp, #16
 616 01a0 D370     		strb	r3, [r2, #3]
 617 01a2 331D     		adds	r3, r6, #4
 618 01a4 0593     		str	r3, [sp, #20]
 619 01a6 4346     		mov	r3, r8
 620 01a8 4A46     		mov	r2, r9
 621 01aa 1B78     		ldrb	r3, [r3]
 622 01ac 0134     		adds	r4, r4, #1
 623 01ae 9343     		bics	r3, r2
 624 01b0 4246     		mov	r2, r8
 625 01b2 1370     		strb	r3, [r2]
 626 01b4 9C23     		movs	r3, #156
 627 01b6 FF33     		adds	r3, r3, #255
ARM GAS  C:\Users\DMA\AppData\Local\Temp\ccWrN0C1.s 			page 12


 628 01b8 9A46     		mov	r10, r3
 629 01ba 4346     		mov	r3, r8
 630 01bc 4A46     		mov	r2, r9
 631 01be 1B78     		ldrb	r3, [r3]
 632 01c0 E4B2     		uxtb	r4, r4
 633 01c2 1A42     		tst	r2, r3
 634 01c4 B3D1     		bne	.L95
 635              	.L138:
 636 01c6 301D     		adds	r0, r6, #4
 637 01c8 4023     		movs	r3, #64
 638 01ca 3200     		movs	r2, r6
 639 01cc 0021     		movs	r1, #0
 640 01ce FFF7FEFF 		bl	CyBle_GattsWriteAttributeValue
 641 01d2 041E     		subs	r4, r0, #0
 642 01d4 B0D1     		bne	.L67
 643 01d6 5B46     		mov	r3, fp
 644 01d8 04A9     		add	r1, sp, #16
 645 01da 1B68     		ldr	r3, [r3]
 646 01dc 5046     		mov	r0, r10
 647 01de 9847     		blx	r3
 648 01e0 AAE7     		b	.L67
 649              	.L134:
 650 01e2 0523     		movs	r3, #5
 651 01e4 DBE7     		b	.L123
 652              	.L135:
 653 01e6 0623     		movs	r3, #6
 654 01e8 D9E7     		b	.L123
 655              	.L133:
 656 01ea 0423     		movs	r3, #4
 657 01ec 04AA     		add	r2, sp, #16
 658 01ee D370     		strb	r3, [r2, #3]
 659 01f0 7CE7     		b	.L127
 660              	.L70:
 661 01f2 4246     		mov	r2, r8
 662 01f4 1278     		ldrb	r2, [r2]
 663 01f6 9A43     		bics	r2, r3
 664 01f8 1300     		movs	r3, r2
 665 01fa 4246     		mov	r2, r8
 666 01fc 1370     		strb	r3, [r2]
 667 01fe 9823     		movs	r3, #152
 668 0200 FF33     		adds	r3, r3, #255
 669 0202 9A46     		mov	r10, r3
 670 0204 8CE7     		b	.L69
 671              	.L80:
 672 0206 0623     		movs	r3, #6
 673 0208 04AA     		add	r2, sp, #16
 674 020a 7068     		ldr	r0, [r6, #4]
 675 020c D370     		strb	r3, [r2, #3]
 676 020e FFF7FEFF 		bl	CyBle_Get16ByPtr
 677 0212 4B46     		mov	r3, r9
 678 0214 9622     		movs	r2, #150
 679 0216 1840     		ands	r0, r3
 680 0218 FF32     		adds	r2, r2, #255
 681 021a 4342     		rsbs	r3, r0, #0
 682 021c 4341     		adcs	r3, r3, r0
 683 021e 9246     		mov	r10, r2
 684 0220 9A44     		add	r10, r10, r3
ARM GAS  C:\Users\DMA\AppData\Local\Temp\ccWrN0C1.s 			page 13


 685 0222 4346     		mov	r3, r8
 686 0224 4A46     		mov	r2, r9
 687 0226 1B78     		ldrb	r3, [r3]
 688 0228 9343     		bics	r3, r2
 689 022a 4246     		mov	r2, r8
 690 022c 1370     		strb	r3, [r2]
 691 022e 174B     		ldr	r3, .L139+12
 692 0230 1B78     		ldrb	r3, [r3]
 693 0232 012B     		cmp	r3, #1
 694 0234 00D0     		beq	.LCB745
 695 0236 73E7     		b	.L69	@long jump
 696              	.LCB745:
 697 0238 154B     		ldr	r3, .L139+16
 698 023a 1A78     		ldrb	r2, [r3]
 699 023c 0223     		movs	r3, #2
 700 023e 1343     		orrs	r3, r2
 701 0240 134A     		ldr	r2, .L139+16
 702 0242 1370     		strb	r3, [r2]
 703 0244 6CE7     		b	.L69
 704              	.L73:
 705 0246 4246     		mov	r2, r8
 706 0248 1278     		ldrb	r2, [r2]
 707 024a 9A43     		bics	r2, r3
 708 024c 1300     		movs	r3, r2
 709 024e 4246     		mov	r2, r8
 710 0250 1370     		strb	r3, [r2]
 711 0252 9A23     		movs	r3, #154
 712 0254 FF33     		adds	r3, r3, #255
 713 0256 9A46     		mov	r10, r3
 714 0258 62E7     		b	.L69
 715              	.L129:
 716 025a 029B     		ldr	r3, [sp, #8]
 717 025c 6446     		mov	r4, ip
 718 025e 002B     		cmp	r3, #0
 719 0260 03D0     		beq	.L93
 720 0262 6A46     		mov	r2, sp
 721 0264 127B     		ldrb	r2, [r2, #12]
 722 0266 04AB     		add	r3, sp, #16
 723 0268 DA70     		strb	r2, [r3, #3]
 724              	.L93:
 725 026a 009B     		ldr	r3, [sp]
 726 026c 002B     		cmp	r3, #0
 727 026e 00D1     		bne	.LCB783
 728 0270 56E7     		b	.L69	@long jump
 729              	.LCB783:
 730 0272 019B     		ldr	r3, [sp, #4]
 731 0274 0593     		str	r3, [sp, #20]
 732 0276 53E7     		b	.L69
 733              	.L137:
 734 0278 019B     		ldr	r3, [sp, #4]
 735 027a 0593     		str	r3, [sp, #20]
 736 027c 34E7     		b	.L86
 737              	.L140:
 738 027e C046     		.align	2
 739              	.L139:
 740 0280 00000000 		.word	.LANCHOR0
 741 0284 00000000 		.word	cyBle_eventHandlerFlag
ARM GAS  C:\Users\DMA\AppData\Local\Temp\ccWrN0C1.s 			page 14


 742 0288 38000000 		.word	.LANCHOR1
 743 028c 00000000 		.word	cyBle_peerBonding
 744 0290 00000000 		.word	cyBle_pendingFlashWrite
 745              		.size	CyBle_HidssWriteEventHandler, .-CyBle_HidssWriteEventHandler
 746              		.section	.text.CyBle_HidssSendNotification,"ax",%progbits
 747              		.align	2
 748              		.global	CyBle_HidssSendNotification
 749              		.code	16
 750              		.thumb_func
 751              		.type	CyBle_HidssSendNotification, %function
 752              	CyBle_HidssSendNotification:
 753              		@ args = 4, pretend = 0, frame = 24
 754              		@ frame_needed = 0, uses_anonymous_args = 0
 755 0000 30B5     		push	{r4, r5, lr}
 756 0002 87B0     		sub	sp, sp, #28
 757 0004 01AC     		add	r4, sp, #4
 758 0006 2080     		strh	r0, [r4]
 759 0008 1C00     		movs	r4, r3
 760 000a 0120     		movs	r0, #1
 761 000c 0229     		cmp	r1, #2
 762 000e 3FD8     		bhi	.L154
 763 0010 082A     		cmp	r2, #8
 764 0012 3DD8     		bhi	.L154
 765 0014 042A     		cmp	r2, #4
 766 0016 3DD0     		beq	.L157
 767 0018 062A     		cmp	r2, #6
 768 001a 12D0     		beq	.L158
 769 001c D31F     		subs	r3, r2, #7
 770 001e 012B     		cmp	r3, #1
 771 0020 36D8     		bhi	.L154
 772 0022 8B00     		lsls	r3, r1, #2
 773 0024 5918     		adds	r1, r3, r1
 774 0026 274B     		ldr	r3, .L159
 775 0028 C900     		lsls	r1, r1, #3
 776 002a 5B18     		adds	r3, r3, r1
 777 002c 1979     		ldrb	r1, [r3, #4]
 778 002e 951F     		subs	r5, r2, #6
 779 0030 8D42     		cmp	r5, r1
 780 0032 2DDC     		bgt	.L154
 781 0034 5500     		lsls	r5, r2, #1
 782 0036 AA18     		adds	r2, r5, r2
 783 0038 5200     		lsls	r2, r2, #1
 784 003a 9968     		ldr	r1, [r3, #8]
 785 003c 2A3A     		subs	r2, r2, #42
 786 003e 8D18     		adds	r5, r1, r2
 787 0040 06E0     		b	.L144
 788              	.L158:
 789 0042 8B00     		lsls	r3, r1, #2
 790 0044 5918     		adds	r1, r3, r1
 791 0046 1F4B     		ldr	r3, .L159
 792 0048 C900     		lsls	r1, r1, #3
 793 004a 5918     		adds	r1, r3, r1
 794 004c 1831     		adds	r1, r1, #24
 795 004e 0D00     		movs	r5, r1
 796              	.L144:
 797 0050 2B88     		ldrh	r3, [r5]
 798 0052 1320     		movs	r0, #19
ARM GAS  C:\Users\DMA\AppData\Local\Temp\ccWrN0C1.s 			page 15


 799 0054 002B     		cmp	r3, #0
 800 0056 1BD0     		beq	.L154
 801 0058 6B88     		ldrh	r3, [r5, #2]
 802 005a 013B     		subs	r3, r3, #1
 803 005c 9A00     		lsls	r2, r3, #2
 804 005e D318     		adds	r3, r2, r3
 805 0060 194A     		ldr	r2, .L159+4
 806 0062 9B00     		lsls	r3, r3, #2
 807 0064 D318     		adds	r3, r2, r3
 808 0066 1B69     		ldr	r3, [r3, #16]
 809 0068 5868     		ldr	r0, [r3, #4]
 810 006a FFF7FEFF 		bl	CyBle_Get16ByPtr
 811 006e C307     		lsls	r3, r0, #31
 812 0070 18D5     		bpl	.L146
 813 0072 0420     		movs	r0, #4
 814 0074 154B     		ldr	r3, .L159+8
 815 0076 FF30     		adds	r0, r0, #255
 816 0078 1B78     		ldrb	r3, [r3]
 817 007a 022B     		cmp	r3, #2
 818 007c 08D1     		bne	.L154
 819 007e 2B88     		ldrh	r3, [r5]
 820 0080 03A9     		add	r1, sp, #12
 821 0082 0B81     		strh	r3, [r1, #8]
 822 0084 0A9B     		ldr	r3, [sp, #40]
 823 0086 0198     		ldr	r0, [sp, #4]
 824 0088 0393     		str	r3, [sp, #12]
 825 008a 8C80     		strh	r4, [r1, #4]
 826 008c FFF7FEFF 		bl	CyBle_GattsNotification
 827              	.L154:
 828 0090 07B0     		add	sp, sp, #28
 829              		@ sp needed
 830 0092 30BD     		pop	{r4, r5, pc}
 831              	.L157:
 832 0094 8B00     		lsls	r3, r1, #2
 833 0096 5918     		adds	r1, r3, r1
 834 0098 0A4B     		ldr	r3, .L159
 835 009a C900     		lsls	r1, r1, #3
 836 009c 5918     		adds	r1, r3, r1
 837 009e 0C31     		adds	r1, r1, #12
 838 00a0 0D00     		movs	r5, r1
 839 00a2 D5E7     		b	.L144
 840              	.L146:
 841 00a4 2B88     		ldrh	r3, [r5]
 842 00a6 03A8     		add	r0, sp, #12
 843 00a8 0381     		strh	r3, [r0, #8]
 844 00aa 0A9B     		ldr	r3, [sp, #40]
 845 00ac 0022     		movs	r2, #0
 846 00ae 0393     		str	r3, [sp, #12]
 847 00b0 0021     		movs	r1, #0
 848 00b2 0023     		movs	r3, #0
 849 00b4 8480     		strh	r4, [r0, #4]
 850 00b6 FFF7FEFF 		bl	CyBle_GattsWriteAttributeValue
 851 00ba 431E     		subs	r3, r0, #1
 852 00bc 9841     		sbcs	r0, r0, r3
 853 00be 80B2     		uxth	r0, r0
 854 00c0 E6E7     		b	.L154
 855              	.L160:
ARM GAS  C:\Users\DMA\AppData\Local\Temp\ccWrN0C1.s 			page 16


 856 00c2 C046     		.align	2
 857              	.L159:
 858 00c4 38000000 		.word	.LANCHOR1
 859 00c8 00000000 		.word	cyBle_gattDB
 860 00cc 00000000 		.word	cyBle_state
 861              		.size	CyBle_HidssSendNotification, .-CyBle_HidssSendNotification
 862              		.section	.text.CyBle_HidssOnDeviceConnected,"ax",%progbits
 863              		.align	2
 864              		.global	CyBle_HidssOnDeviceConnected
 865              		.code	16
 866              		.thumb_func
 867              		.type	CyBle_HidssOnDeviceConnected, %function
 868              	CyBle_HidssOnDeviceConnected:
 869              		@ args = 0, pretend = 0, frame = 0
 870              		@ frame_needed = 0, uses_anonymous_args = 0
 871              		@ link register save eliminated.
 872 0000 8B23     		movs	r3, #139
 873 0002 074A     		ldr	r2, .L162
 874 0004 9B00     		lsls	r3, r3, #2
 875 0006 D358     		ldr	r3, [r2, r3]
 876              		@ sp needed
 877 0008 5968     		ldr	r1, [r3, #4]
 878 000a 0123     		movs	r3, #1
 879 000c 0B70     		strb	r3, [r1]
 880 000e 0549     		ldr	r1, .L162+4
 881 0010 5158     		ldr	r1, [r2, r1]
 882 0012 4968     		ldr	r1, [r1, #4]
 883 0014 0B70     		strb	r3, [r1]
 884 0016 0449     		ldr	r1, .L162+8
 885 0018 5258     		ldr	r2, [r2, r1]
 886 001a 5268     		ldr	r2, [r2, #4]
 887 001c 1370     		strb	r3, [r2]
 888 001e 7047     		bx	lr
 889              	.L163:
 890              		.align	2
 891              	.L162:
 892 0020 00000000 		.word	cyBle_gattDB
 893 0024 34040000 		.word	1076
 894 0028 4C050000 		.word	1356
 895              		.size	CyBle_HidssOnDeviceConnected, .-CyBle_HidssOnDeviceConnected
 896              		.global	cyBle_hidss
 897              		.section	.rodata
 898              		.align	2
 899              		.set	.LANCHOR1,. + 0
 900              		.type	cyBle_hidss, %object
 901              		.size	cyBle_hidss, 120
 902              	cyBle_hidss:
 903 0038 0C00     		.short	12
 904 003a 1C00     		.short	28
 905 003c 02       		.byte	2
 906 003d 000000   		.space	3
 907 0040 C0000000 		.word	cyBle_hids1ReportArray
 908 0044 1E00     		.short	30
 909 0046 1F00     		.short	31
 910 0048 0000     		.short	0
 911 004a 2100     		.short	33
 912 004c 0000     		.short	0
ARM GAS  C:\Users\DMA\AppData\Local\Temp\ccWrN0C1.s 			page 17


 913 004e 0000     		.short	0
 914 0050 0000     		.short	0
 915 0052 0000     		.short	0
 916 0054 0000     		.short	0
 917 0056 1600     		.short	22
 918 0058 0000     		.short	0
 919 005a 1800     		.short	24
 920 005c 1A00     		.short	26
 921 005e 0000     		.space	2
 922 0060 3400     		.short	52
 923 0062 3600     		.short	54
 924 0064 01       		.byte	1
 925 0065 000000   		.space	3
 926 0068 B8000000 		.word	cyBle_hids2ReportArray
 927 006c 0000     		.short	0
 928 006e 0000     		.short	0
 929 0070 0000     		.short	0
 930 0072 0000     		.short	0
 931 0074 0000     		.short	0
 932 0076 0000     		.short	0
 933 0078 0000     		.short	0
 934 007a 0000     		.short	0
 935 007c 0000     		.short	0
 936 007e 3C00     		.short	60
 937 0080 3D00     		.short	61
 938 0082 3F00     		.short	63
 939 0084 4100     		.short	65
 940 0086 0000     		.space	2
 941 0088 4200     		.short	66
 942 008a 4400     		.short	68
 943 008c 01       		.byte	1
 944 008d 000000   		.space	3
 945 0090 B0000000 		.word	cyBle_hids3ReportArray
 946 0094 0000     		.short	0
 947 0096 0000     		.short	0
 948 0098 0000     		.short	0
 949 009a 0000     		.short	0
 950 009c 0000     		.short	0
 951 009e 0000     		.short	0
 952 00a0 0000     		.short	0
 953 00a2 0000     		.short	0
 954 00a4 0000     		.short	0
 955 00a6 4A00     		.short	74
 956 00a8 4B00     		.short	75
 957 00aa 4D00     		.short	77
 958 00ac 4F00     		.short	79
 959 00ae 0000     		.space	2
 960              		.align	2
 961              		.type	cyBle_hids3ReportArray, %object
 962              		.size	cyBle_hids3ReportArray, 6
 963              	cyBle_hids3ReportArray:
 964 00b0 4600     		.short	70
 965 00b2 4700     		.short	71
 966 00b4 4800     		.short	72
 967 00b6 0000     		.space	2
 968              		.type	cyBle_hids2ReportArray, %object
 969              		.size	cyBle_hids2ReportArray, 6
ARM GAS  C:\Users\DMA\AppData\Local\Temp\ccWrN0C1.s 			page 18


 970              	cyBle_hids2ReportArray:
 971 00b8 3800     		.short	56
 972 00ba 3900     		.short	57
 973 00bc 3A00     		.short	58
 974 00be 0000     		.space	2
 975              		.type	cyBle_hids1ReportArray, %object
 976              		.size	cyBle_hids1ReportArray, 12
 977              	cyBle_hids1ReportArray:
 978 00c0 0E00     		.short	14
 979 00c2 0F00     		.short	15
 980 00c4 1000     		.short	16
 981 00c6 1200     		.short	18
 982 00c8 1300     		.short	19
 983 00ca 1400     		.short	20
 984              		.bss
 985              		.align	2
 986              		.set	.LANCHOR0,. + 0
 987              		.type	CyBle_HidsApplCallback, %object
 988              		.size	CyBle_HidsApplCallback, 4
 989              	CyBle_HidsApplCallback:
 990 0000 00000000 		.space	4
 991              		.ident	"GCC: (GNU Tools for ARM Embedded Processors) 5.4.1 20160609 (release) [ARM/embedded-5-bran
