ARM GAS  C:\Users\DMA\AppData\Local\Temp\ccRKjlgr.s 			page 1


   1              		.syntax unified
   2              		.cpu cortex-m0
   3              		.fpu softvfp
   4              		.eabi_attribute 20, 1
   5              		.eabi_attribute 21, 1
   6              		.eabi_attribute 23, 3
   7              		.eabi_attribute 24, 1
   8              		.eabi_attribute 25, 1
   9              		.eabi_attribute 26, 1
  10              		.eabi_attribute 30, 2
  11              		.eabi_attribute 34, 0
  12              		.eabi_attribute 18, 4
  13              		.thumb
  14              		.syntax unified
  15              		.file	"Cm0Start.c"
  16              		.section	.text.IntDefaultHandler,"ax",%progbits
  17              		.align	2
  18              		.global	IntDefaultHandler
  19              		.code	16
  20              		.thumb_func
  21              		.type	IntDefaultHandler, %function
  22              	IntDefaultHandler:
  23              		@ Volatile: function does not return.
  24              		@ args = 0, pretend = 0, frame = 0
  25              		@ frame_needed = 0, uses_anonymous_args = 0
  26 0000 10B5     		push	{r4, lr}
  27 0002 FFF7FEFF 		bl	__errno
  28 0006 0368     		ldr	r3, [r0]
  29 0008 0C2B     		cmp	r3, #12
  30 000a 00D0     		beq	.L3
  31              	.L4:
  32 000c FEE7     		b	.L4
  33              	.L3:
  34 000e FEE7     		b	.L3
  35              		.size	IntDefaultHandler, .-IntDefaultHandler
  36              		.section	.text._exit,"ax",%progbits
  37              		.align	2
  38              		.weak	_exit
  39              		.code	16
  40              		.thumb_func
  41              		.type	_exit, %function
  42              	_exit:
  43              		@ Volatile: function does not return.
  44              		@ args = 0, pretend = 0, frame = 0
  45              		@ frame_needed = 0, uses_anonymous_args = 0
  46 0000 10B5     		push	{r4, lr}
  47 0002 C0B2     		uxtb	r0, r0
  48 0004 FFF7FEFF 		bl	CyHalt
  49              	.L7:
  50 0008 FEE7     		b	.L7
  51              		.size	_exit, .-_exit
  52 000a C046     		.section	.text._sbrk,"ax",%progbits
  53              		.align	2
  54              		.weak	_sbrk
  55              		.code	16
  56              		.thumb_func
  57              		.type	_sbrk, %function
ARM GAS  C:\Users\DMA\AppData\Local\Temp\ccRKjlgr.s 			page 2


  58              	_sbrk:
  59              		@ args = 0, pretend = 0, frame = 0
  60              		@ frame_needed = 0, uses_anonymous_args = 0
  61 0000 0300     		movs	r3, r0
  62 0002 10B5     		push	{r4, lr}
  63 0004 8024     		movs	r4, #128
  64 0006 0849     		ldr	r1, .L11
  65 0008 084A     		ldr	r2, .L11+4
  66 000a 0868     		ldr	r0, [r1]
  67 000c E400     		lsls	r4, r4, #3
  68 000e C318     		adds	r3, r0, r3
  69 0010 9A1A     		subs	r2, r3, r2
  70 0012 A242     		cmp	r2, r4
  71 0014 01DC     		bgt	.L9
  72 0016 0B60     		str	r3, [r1]
  73              	.L10:
  74              		@ sp needed
  75 0018 10BD     		pop	{r4, pc}
  76              	.L9:
  77 001a FFF7FEFF 		bl	__errno
  78 001e 0C23     		movs	r3, #12
  79 0020 0360     		str	r3, [r0]
  80 0022 0120     		movs	r0, #1
  81 0024 4042     		rsbs	r0, r0, #0
  82 0026 F7E7     		b	.L10
  83              	.L12:
  84              		.align	2
  85              	.L11:
  86 0028 00000000 		.word	.LANCHOR0
  87 002c 00000000 		.word	end
  88              		.size	_sbrk, .-_sbrk
  89              		.section	.text.Start_c,"ax",%progbits
  90              		.align	2
  91              		.global	Start_c
  92              		.code	16
  93              		.thumb_func
  94              		.type	Start_c, %function
  95              	Start_c:
  96              		@ Volatile: function does not return.
  97              		@ args = 0, pretend = 0, frame = 0
  98              		@ frame_needed = 0, uses_anonymous_args = 0
  99 0000 F8B5     		push	{r3, r4, r5, r6, r7, lr}
 100 0002 104E     		ldr	r6, .L30
 101 0004 002E     		cmp	r6, #0
 102 0006 18D0     		beq	.L20
 103 0008 0020     		movs	r0, #0
 104 000a 0F4D     		ldr	r5, .L30+4
 105              	.L19:
 106 000c A968     		ldr	r1, [r5, #8]
 107 000e 2C68     		ldr	r4, [r5]
 108 0010 6A68     		ldr	r2, [r5, #4]
 109 0012 0029     		cmp	r1, #0
 110 0014 05D0     		beq	.L16
 111 0016 0023     		movs	r3, #0
 112              	.L17:
 113 0018 E758     		ldr	r7, [r4, r3]
 114 001a 0433     		adds	r3, r3, #4
ARM GAS  C:\Users\DMA\AppData\Local\Temp\ccRKjlgr.s 			page 3


 115 001c 80C2     		stmia	r2!, {r7}
 116 001e 9942     		cmp	r1, r3
 117 0020 FAD1     		bne	.L17
 118              	.L16:
 119 0022 E968     		ldr	r1, [r5, #12]
 120 0024 0023     		movs	r3, #0
 121 0026 0029     		cmp	r1, #0
 122 0028 03D0     		beq	.L22
 123              	.L25:
 124 002a D050     		str	r0, [r2, r3]
 125 002c 0433     		adds	r3, r3, #4
 126 002e 9942     		cmp	r1, r3
 127 0030 FBD1     		bne	.L25
 128              	.L22:
 129 0032 013E     		subs	r6, r6, #1
 130 0034 1035     		adds	r5, r5, #16
 131 0036 002E     		cmp	r6, #0
 132 0038 E8D1     		bne	.L19
 133              	.L20:
 134 003a FFF7FEFF 		bl	__libc_init_array
 135 003e FFF7FEFF 		bl	main
 136              	.L15:
 137 0042 FEE7     		b	.L15
 138              	.L31:
 139              		.align	2
 140              	.L30:
 141 0044 00000000 		.word	__cy_region_num
 142 0048 00000000 		.word	__cy_regions
 143              		.size	Start_c, .-Start_c
 144              		.section	.text.Reset,"ax",%progbits
 145              		.align	2
 146              		.global	Reset
 147              		.code	16
 148              		.thumb_func
 149              		.type	Reset, %function
 150              	Reset:
 151              		@ Volatile: function does not return.
 152              		@ args = 0, pretend = 0, frame = 0
 153              		@ frame_needed = 0, uses_anonymous_args = 0
 154 0000 10B5     		push	{r4, lr}
 155 0002 FFF7FEFF 		bl	Start_c
 156              		.size	Reset, .-Reset
 157 0006 C046     		.section	.text.startup.initialize_psoc,"ax",%progbits
 158              		.align	2
 159              		.global	initialize_psoc
 160              		.code	16
 161              		.thumb_func
 162              		.type	initialize_psoc, %function
 163              	initialize_psoc:
 164              		@ args = 0, pretend = 0, frame = 0
 165              		@ frame_needed = 0, uses_anonymous_args = 0
 166 0000 0121     		movs	r1, #1
 167 0002 104A     		ldr	r2, .L39
 168 0004 70B5     		push	{r4, r5, r6, lr}
 169 0006 1368     		ldr	r3, [r2]
 170 0008 0F4C     		ldr	r4, .L39+4
 171 000a 8B43     		bics	r3, r1
ARM GAS  C:\Users\DMA\AppData\Local\Temp\ccRKjlgr.s 			page 4


 172 000c 1360     		str	r3, [r2]
 173 000e 0F48     		ldr	r0, .L39+8
 174 0010 0022     		movs	r2, #0
 175 0012 0023     		movs	r3, #0
 176 0014 0E4D     		ldr	r5, .L39+12
 177 0016 04E0     		b	.L35
 178              	.L34:
 179 0018 0133     		adds	r3, r3, #1
 180 001a A150     		str	r1, [r4, r2]
 181 001c 0432     		adds	r2, r2, #4
 182 001e 302B     		cmp	r3, #48
 183 0020 08D0     		beq	.L38
 184              	.L35:
 185 0022 0100     		movs	r1, r0
 186 0024 032B     		cmp	r3, #3
 187 0026 F7D8     		bhi	.L34
 188 0028 5159     		ldr	r1, [r2, r5]
 189 002a 0133     		adds	r3, r3, #1
 190 002c A150     		str	r1, [r4, r2]
 191 002e 0432     		adds	r2, r2, #4
 192 0030 302B     		cmp	r3, #48
 193 0032 F6D1     		bne	.L35
 194              	.L38:
 195 0034 FFF7FEFF 		bl	cyfitter_cfg
 196 0038 0123     		movs	r3, #1
 197 003a 024A     		ldr	r2, .L39
 198              		@ sp needed
 199 003c 1168     		ldr	r1, [r2]
 200 003e 0B43     		orrs	r3, r1
 201 0040 1360     		str	r3, [r2]
 202 0042 70BD     		pop	{r4, r5, r6, pc}
 203              	.L40:
 204              		.align	2
 205              	.L39:
 206 0044 00001040 		.word	1074790400
 207 0048 00000000 		.word	.LANCHOR2
 208 004c 00000000 		.word	IntDefaultHandler
 209 0050 00000000 		.word	.LANCHOR1
 210              		.size	initialize_psoc, .-initialize_psoc
 211              		.section	.init_array,"aw",%init_array
 212              		.align	2
 213 0000 00000000 		.word	initialize_psoc(target1)
 214              		.global	RomVectors
 215              		.global	CyRamVectors
 216              		.section	.romvectors,"a",%progbits
 217              		.align	2
 218              		.set	.LANCHOR1,. + 0
 219              		.type	RomVectors, %object
 220              		.size	RomVectors, 16
 221              	RomVectors:
 222 0000 00000000 		.word	__cy_stack
 223 0004 00000000 		.word	Reset
 224 0008 00000000 		.word	IntDefaultHandler
 225 000c 00000000 		.word	IntDefaultHandler
 226              		.data
 227              		.align	2
 228              		.set	.LANCHOR0,. + 0
ARM GAS  C:\Users\DMA\AppData\Local\Temp\ccRKjlgr.s 			page 5


 229              		.type	heapPointer.4890, %object
 230              		.size	heapPointer.4890, 4
 231              	heapPointer.4890:
 232 0000 00000000 		.word	end
 233              		.section	.ramvectors,"aw",%progbits
 234              		.align	2
 235              		.set	.LANCHOR2,. + 0
 236              		.type	CyRamVectors, %object
 237              		.size	CyRamVectors, 192
 238              	CyRamVectors:
 239 0000 00000000 		.space	192
 239      00000000 
 239      00000000 
 239      00000000 
 239      00000000 
 240              		.weak	__cy_region_num
 241              		.ident	"GCC: (GNU Tools for ARM Embedded Processors) 5.4.1 20160609 (release) [ARM/embedded-5-bran
