ARM GAS  C:\Users\DMA\AppData\Local\Temp\ccp2cm3d.s 			page 1


   1              		.syntax unified
   2              		.cpu cortex-m0
   3              		.fpu softvfp
   4              		.eabi_attribute 20, 1
   5              		.eabi_attribute 21, 1
   6              		.eabi_attribute 23, 3
   7              		.eabi_attribute 24, 1
   8              		.eabi_attribute 25, 1
   9              		.eabi_attribute 26, 1
  10              		.eabi_attribute 30, 2
  11              		.eabi_attribute 34, 0
  12              		.eabi_attribute 18, 4
  13              		.thumb
  14              		.syntax unified
  15              		.file	"CyDMA.c"
  16              		.section	.text.CyDmaInterrupt,"ax",%progbits
  17              		.align	2
  18              		.global	CyDmaInterrupt
  19              		.code	16
  20              		.thumb_func
  21              		.type	CyDmaInterrupt, %function
  22              	CyDmaInterrupt:
  23              		@ args = 0, pretend = 0, frame = 0
  24              		@ frame_needed = 0, uses_anonymous_args = 0
  25 0000 0B4B     		ldr	r3, .L11
  26 0002 70B5     		push	{r4, r5, r6, lr}
  27 0004 1C68     		ldr	r4, [r3]
  28 0006 0B4B     		ldr	r3, .L11+4
  29 0008 1C60     		str	r4, [r3]
  30 000a 002C     		cmp	r4, #0
  31 000c 0ED0     		beq	.L1
  32 000e 0A4D     		ldr	r5, .L11+8
  33 0010 0126     		movs	r6, #1
  34 0012 03E0     		b	.L4
  35              	.L3:
  36 0014 6408     		lsrs	r4, r4, #1
  37 0016 0435     		adds	r5, r5, #4
  38 0018 002C     		cmp	r4, #0
  39 001a 07D0     		beq	.L1
  40              	.L4:
  41 001c 2642     		tst	r6, r4
  42 001e F9D0     		beq	.L3
  43 0020 2B68     		ldr	r3, [r5]
  44 0022 9847     		blx	r3
  45 0024 6408     		lsrs	r4, r4, #1
  46 0026 0435     		adds	r5, r5, #4
  47 0028 002C     		cmp	r4, #0
  48 002a F7D1     		bne	.L4
  49              	.L1:
  50              		@ sp needed
  51 002c 70BD     		pop	{r4, r5, r6, pc}
  52              	.L12:
  53 002e C046     		.align	2
  54              	.L11:
  55 0030 FC171040 		.word	1074796540
  56 0034 F0171040 		.word	1074796528
  57 0038 00000000 		.word	.LANCHOR0
ARM GAS  C:\Users\DMA\AppData\Local\Temp\ccp2cm3d.s 			page 2


  58              		.size	CyDmaInterrupt, .-CyDmaInterrupt
  59              		.section	.text.CyDmaDefaultInterruptCallback,"ax",%progbits
  60              		.align	2
  61              		.code	16
  62              		.thumb_func
  63              		.type	CyDmaDefaultInterruptCallback, %function
  64              	CyDmaDefaultInterruptCallback:
  65              		@ args = 0, pretend = 0, frame = 0
  66              		@ frame_needed = 0, uses_anonymous_args = 0
  67 0000 10B5     		push	{r4, lr}
  68 0002 0020     		movs	r0, #0
  69 0004 FFF7FEFF 		bl	CyHalt
  70              		@ sp needed
  71 0008 10BD     		pop	{r4, pc}
  72              		.size	CyDmaDefaultInterruptCallback, .-CyDmaDefaultInterruptCallback
  73 000a C046     		.section	.text.CyDmaEnable,"ax",%progbits
  74              		.align	2
  75              		.global	CyDmaEnable
  76              		.code	16
  77              		.thumb_func
  78              		.type	CyDmaEnable, %function
  79              	CyDmaEnable:
  80              		@ args = 0, pretend = 0, frame = 0
  81              		@ frame_needed = 0, uses_anonymous_args = 0
  82 0000 10B5     		push	{r4, lr}
  83 0002 094C     		ldr	r4, .L16
  84 0004 2378     		ldrb	r3, [r4]
  85 0006 002B     		cmp	r3, #0
  86 0008 09D1     		bne	.L15
  87 000a 0849     		ldr	r1, .L16+4
  88 000c 1520     		movs	r0, #21
  89 000e FFF7FEFF 		bl	CyIntSetVector
  90 0012 0321     		movs	r1, #3
  91 0014 1520     		movs	r0, #21
  92 0016 FFF7FEFF 		bl	CyIntSetPriority
  93 001a 0123     		movs	r3, #1
  94 001c 2370     		strb	r3, [r4]
  95              	.L15:
  96 001e 8022     		movs	r2, #128
  97 0020 034B     		ldr	r3, .L16+8
  98 0022 1206     		lsls	r2, r2, #24
  99 0024 1A60     		str	r2, [r3]
 100              		@ sp needed
 101 0026 10BD     		pop	{r4, pc}
 102              	.L17:
 103              		.align	2
 104              	.L16:
 105 0028 00000000 		.word	.LANCHOR1
 106 002c 00000000 		.word	CyDmaInterrupt
 107 0030 00101040 		.word	1074794496
 108              		.size	CyDmaEnable, .-CyDmaEnable
 109              		.section	.text.CyDmaDisable,"ax",%progbits
 110              		.align	2
 111              		.global	CyDmaDisable
 112              		.code	16
 113              		.thumb_func
 114              		.type	CyDmaDisable, %function
ARM GAS  C:\Users\DMA\AppData\Local\Temp\ccp2cm3d.s 			page 3


 115              	CyDmaDisable:
 116              		@ args = 0, pretend = 0, frame = 0
 117              		@ frame_needed = 0, uses_anonymous_args = 0
 118              		@ link register save eliminated.
 119 0000 014A     		ldr	r2, .L19
 120 0002 024B     		ldr	r3, .L19+4
 121              		@ sp needed
 122 0004 1A60     		str	r2, [r3]
 123 0006 7047     		bx	lr
 124              	.L20:
 125              		.align	2
 126              	.L19:
 127 0008 FFFFFF7F 		.word	2147483647
 128 000c 00101040 		.word	1074794496
 129              		.size	CyDmaDisable, .-CyDmaDisable
 130              		.section	.text.CyDmaGetStatus,"ax",%progbits
 131              		.align	2
 132              		.global	CyDmaGetStatus
 133              		.code	16
 134              		.thumb_func
 135              		.type	CyDmaGetStatus, %function
 136              	CyDmaGetStatus:
 137              		@ args = 0, pretend = 0, frame = 0
 138              		@ frame_needed = 0, uses_anonymous_args = 0
 139              		@ link register save eliminated.
 140 0000 014B     		ldr	r3, .L22
 141              		@ sp needed
 142 0002 1868     		ldr	r0, [r3]
 143 0004 7047     		bx	lr
 144              	.L23:
 145 0006 C046     		.align	2
 146              	.L22:
 147 0008 10101040 		.word	1074794512
 148              		.size	CyDmaGetStatus, .-CyDmaGetStatus
 149              		.section	.text.CyDmaGetActiveChannels,"ax",%progbits
 150              		.align	2
 151              		.global	CyDmaGetActiveChannels
 152              		.code	16
 153              		.thumb_func
 154              		.type	CyDmaGetActiveChannels, %function
 155              	CyDmaGetActiveChannels:
 156              		@ args = 0, pretend = 0, frame = 0
 157              		@ frame_needed = 0, uses_anonymous_args = 0
 158              		@ link register save eliminated.
 159 0000 014B     		ldr	r3, .L25
 160              		@ sp needed
 161 0002 1868     		ldr	r0, [r3]
 162 0004 7047     		bx	lr
 163              	.L26:
 164 0006 C046     		.align	2
 165              	.L25:
 166 0008 1C101040 		.word	1074794524
 167              		.size	CyDmaGetActiveChannels, .-CyDmaGetActiveChannels
 168              		.section	.text.CyDmaGetActiveSrcAddress,"ax",%progbits
 169              		.align	2
 170              		.global	CyDmaGetActiveSrcAddress
 171              		.code	16
ARM GAS  C:\Users\DMA\AppData\Local\Temp\ccp2cm3d.s 			page 4


 172              		.thumb_func
 173              		.type	CyDmaGetActiveSrcAddress, %function
 174              	CyDmaGetActiveSrcAddress:
 175              		@ args = 0, pretend = 0, frame = 0
 176              		@ frame_needed = 0, uses_anonymous_args = 0
 177              		@ link register save eliminated.
 178 0000 014B     		ldr	r3, .L28
 179              		@ sp needed
 180 0002 1868     		ldr	r0, [r3]
 181 0004 7047     		bx	lr
 182              	.L29:
 183 0006 C046     		.align	2
 184              	.L28:
 185 0008 14101040 		.word	1074794516
 186              		.size	CyDmaGetActiveSrcAddress, .-CyDmaGetActiveSrcAddress
 187              		.section	.text.CyDmaGetActiveDstAddress,"ax",%progbits
 188              		.align	2
 189              		.global	CyDmaGetActiveDstAddress
 190              		.code	16
 191              		.thumb_func
 192              		.type	CyDmaGetActiveDstAddress, %function
 193              	CyDmaGetActiveDstAddress:
 194              		@ args = 0, pretend = 0, frame = 0
 195              		@ frame_needed = 0, uses_anonymous_args = 0
 196              		@ link register save eliminated.
 197 0000 014B     		ldr	r3, .L31
 198              		@ sp needed
 199 0002 1868     		ldr	r0, [r3]
 200 0004 7047     		bx	lr
 201              	.L32:
 202 0006 C046     		.align	2
 203              	.L31:
 204 0008 18101040 		.word	1074794520
 205              		.size	CyDmaGetActiveDstAddress, .-CyDmaGetActiveDstAddress
 206              		.section	.text.CyDmaSetInterruptVector,"ax",%progbits
 207              		.align	2
 208              		.global	CyDmaSetInterruptVector
 209              		.code	16
 210              		.thumb_func
 211              		.type	CyDmaSetInterruptVector, %function
 212              	CyDmaSetInterruptVector:
 213              		@ args = 0, pretend = 0, frame = 0
 214              		@ frame_needed = 0, uses_anonymous_args = 0
 215 0000 10B5     		push	{r4, lr}
 216 0002 0100     		movs	r1, r0
 217 0004 1520     		movs	r0, #21
 218 0006 FFF7FEFF 		bl	CyIntSetVector
 219              		@ sp needed
 220 000a 10BD     		pop	{r4, pc}
 221              		.size	CyDmaSetInterruptVector, .-CyDmaSetInterruptVector
 222              		.section	.text.CyDmaGetInterruptSource,"ax",%progbits
 223              		.align	2
 224              		.global	CyDmaGetInterruptSource
 225              		.code	16
 226              		.thumb_func
 227              		.type	CyDmaGetInterruptSource, %function
 228              	CyDmaGetInterruptSource:
ARM GAS  C:\Users\DMA\AppData\Local\Temp\ccp2cm3d.s 			page 5


 229              		@ args = 0, pretend = 0, frame = 0
 230              		@ frame_needed = 0, uses_anonymous_args = 0
 231              		@ link register save eliminated.
 232 0000 014B     		ldr	r3, .L35
 233              		@ sp needed
 234 0002 1868     		ldr	r0, [r3]
 235 0004 7047     		bx	lr
 236              	.L36:
 237 0006 C046     		.align	2
 238              	.L35:
 239 0008 F0171040 		.word	1074796528
 240              		.size	CyDmaGetInterruptSource, .-CyDmaGetInterruptSource
 241              		.section	.text.CyDmaClearInterruptSource,"ax",%progbits
 242              		.align	2
 243              		.global	CyDmaClearInterruptSource
 244              		.code	16
 245              		.thumb_func
 246              		.type	CyDmaClearInterruptSource, %function
 247              	CyDmaClearInterruptSource:
 248              		@ args = 0, pretend = 0, frame = 0
 249              		@ frame_needed = 0, uses_anonymous_args = 0
 250              		@ link register save eliminated.
 251 0000 014B     		ldr	r3, .L38
 252              		@ sp needed
 253 0002 1860     		str	r0, [r3]
 254 0004 7047     		bx	lr
 255              	.L39:
 256 0006 C046     		.align	2
 257              	.L38:
 258 0008 F0171040 		.word	1074796528
 259              		.size	CyDmaClearInterruptSource, .-CyDmaClearInterruptSource
 260              		.section	.text.CyDmaSetInterruptSourceMask,"ax",%progbits
 261              		.align	2
 262              		.global	CyDmaSetInterruptSourceMask
 263              		.code	16
 264              		.thumb_func
 265              		.type	CyDmaSetInterruptSourceMask, %function
 266              	CyDmaSetInterruptSourceMask:
 267              		@ args = 0, pretend = 0, frame = 0
 268              		@ frame_needed = 0, uses_anonymous_args = 0
 269              		@ link register save eliminated.
 270 0000 014B     		ldr	r3, .L41
 271              		@ sp needed
 272 0002 1860     		str	r0, [r3]
 273 0004 7047     		bx	lr
 274              	.L42:
 275 0006 C046     		.align	2
 276              	.L41:
 277 0008 F8171040 		.word	1074796536
 278              		.size	CyDmaSetInterruptSourceMask, .-CyDmaSetInterruptSourceMask
 279              		.section	.text.CyDmaGetInterruptSourceMask,"ax",%progbits
 280              		.align	2
 281              		.global	CyDmaGetInterruptSourceMask
 282              		.code	16
 283              		.thumb_func
 284              		.type	CyDmaGetInterruptSourceMask, %function
 285              	CyDmaGetInterruptSourceMask:
ARM GAS  C:\Users\DMA\AppData\Local\Temp\ccp2cm3d.s 			page 6


 286              		@ args = 0, pretend = 0, frame = 0
 287              		@ frame_needed = 0, uses_anonymous_args = 0
 288              		@ link register save eliminated.
 289 0000 014B     		ldr	r3, .L44
 290              		@ sp needed
 291 0002 1868     		ldr	r0, [r3]
 292 0004 7047     		bx	lr
 293              	.L45:
 294 0006 C046     		.align	2
 295              	.L44:
 296 0008 F8171040 		.word	1074796536
 297              		.size	CyDmaGetInterruptSourceMask, .-CyDmaGetInterruptSourceMask
 298              		.section	.text.CyDmaGetInterruptSourceMasked,"ax",%progbits
 299              		.align	2
 300              		.global	CyDmaGetInterruptSourceMasked
 301              		.code	16
 302              		.thumb_func
 303              		.type	CyDmaGetInterruptSourceMasked, %function
 304              	CyDmaGetInterruptSourceMasked:
 305              		@ args = 0, pretend = 0, frame = 0
 306              		@ frame_needed = 0, uses_anonymous_args = 0
 307              		@ link register save eliminated.
 308 0000 014B     		ldr	r3, .L47
 309              		@ sp needed
 310 0002 1868     		ldr	r0, [r3]
 311 0004 7047     		bx	lr
 312              	.L48:
 313 0006 C046     		.align	2
 314              	.L47:
 315 0008 FC171040 		.word	1074796540
 316              		.size	CyDmaGetInterruptSourceMasked, .-CyDmaGetInterruptSourceMasked
 317              		.section	.text.CyDmaSetInterruptCallback,"ax",%progbits
 318              		.align	2
 319              		.global	CyDmaSetInterruptCallback
 320              		.code	16
 321              		.thumb_func
 322              		.type	CyDmaSetInterruptCallback, %function
 323              	CyDmaSetInterruptCallback:
 324              		@ args = 0, pretend = 0, frame = 0
 325              		@ frame_needed = 0, uses_anonymous_args = 0
 326 0000 70B5     		push	{r4, r5, r6, lr}
 327 0002 0400     		movs	r4, r0
 328 0004 0D00     		movs	r5, r1
 329 0006 0728     		cmp	r0, #7
 330 0008 02D9     		bls	.L50
 331 000a 0020     		movs	r0, #0
 332 000c FFF7FEFF 		bl	CyHalt
 333              	.L50:
 334 0010 024B     		ldr	r3, .L51
 335 0012 A400     		lsls	r4, r4, #2
 336 0014 E058     		ldr	r0, [r4, r3]
 337              		@ sp needed
 338 0016 E550     		str	r5, [r4, r3]
 339 0018 70BD     		pop	{r4, r5, r6, pc}
 340              	.L52:
 341 001a C046     		.align	2
 342              	.L51:
ARM GAS  C:\Users\DMA\AppData\Local\Temp\ccp2cm3d.s 			page 7


 343 001c 00000000 		.word	.LANCHOR0
 344              		.size	CyDmaSetInterruptCallback, .-CyDmaSetInterruptCallback
 345              		.section	.text.CyDmaGetInterruptCallback,"ax",%progbits
 346              		.align	2
 347              		.global	CyDmaGetInterruptCallback
 348              		.code	16
 349              		.thumb_func
 350              		.type	CyDmaGetInterruptCallback, %function
 351              	CyDmaGetInterruptCallback:
 352              		@ args = 0, pretend = 0, frame = 0
 353              		@ frame_needed = 0, uses_anonymous_args = 0
 354 0000 10B5     		push	{r4, lr}
 355 0002 0400     		movs	r4, r0
 356 0004 0728     		cmp	r0, #7
 357 0006 02D9     		bls	.L54
 358 0008 0020     		movs	r0, #0
 359 000a FFF7FEFF 		bl	CyHalt
 360              	.L54:
 361 000e 024B     		ldr	r3, .L55
 362 0010 A400     		lsls	r4, r4, #2
 363 0012 E058     		ldr	r0, [r4, r3]
 364              		@ sp needed
 365 0014 10BD     		pop	{r4, pc}
 366              	.L56:
 367 0016 C046     		.align	2
 368              	.L55:
 369 0018 00000000 		.word	.LANCHOR0
 370              		.size	CyDmaGetInterruptCallback, .-CyDmaGetInterruptCallback
 371              		.section	.text.CyDmaChAlloc,"ax",%progbits
 372              		.align	2
 373              		.global	CyDmaChAlloc
 374              		.code	16
 375              		.thumb_func
 376              		.type	CyDmaChAlloc, %function
 377              	CyDmaChAlloc:
 378              		@ args = 0, pretend = 0, frame = 0
 379              		@ frame_needed = 0, uses_anonymous_args = 0
 380              		@ link register save eliminated.
 381 0000 174A     		ldr	r2, .L69
 382 0002 5368     		ldr	r3, [r2, #4]
 383 0004 1906     		lsls	r1, r3, #24
 384 0006 10D5     		bpl	.L60
 385 0008 5906     		lsls	r1, r3, #25
 386 000a 13D5     		bpl	.L61
 387 000c 9906     		lsls	r1, r3, #26
 388 000e 14D5     		bpl	.L62
 389 0010 D906     		lsls	r1, r3, #27
 390 0012 15D5     		bpl	.L63
 391 0014 1907     		lsls	r1, r3, #28
 392 0016 16D5     		bpl	.L64
 393 0018 5907     		lsls	r1, r3, #29
 394 001a 17D5     		bpl	.L65
 395 001c 9907     		lsls	r1, r3, #30
 396 001e 18D5     		bpl	.L66
 397 0020 0120     		movs	r0, #1
 398 0022 4042     		rsbs	r0, r0, #0
 399 0024 D907     		lsls	r1, r3, #31
ARM GAS  C:\Users\DMA\AppData\Local\Temp\ccp2cm3d.s 			page 8


 400 0026 17D5     		bpl	.L68
 401              	.L59:
 402              		@ sp needed
 403 0028 7047     		bx	lr
 404              	.L60:
 405 002a 8021     		movs	r1, #128
 406 002c 0720     		movs	r0, #7
 407              	.L58:
 408 002e 0B43     		orrs	r3, r1
 409 0030 5360     		str	r3, [r2, #4]
 410 0032 F9E7     		b	.L59
 411              	.L61:
 412 0034 4021     		movs	r1, #64
 413 0036 0620     		movs	r0, #6
 414 0038 F9E7     		b	.L58
 415              	.L62:
 416 003a 2021     		movs	r1, #32
 417 003c 0520     		movs	r0, #5
 418 003e F6E7     		b	.L58
 419              	.L63:
 420 0040 1021     		movs	r1, #16
 421 0042 0420     		movs	r0, #4
 422 0044 F3E7     		b	.L58
 423              	.L64:
 424 0046 0821     		movs	r1, #8
 425 0048 0320     		movs	r0, #3
 426 004a F0E7     		b	.L58
 427              	.L65:
 428 004c 0421     		movs	r1, #4
 429 004e 0220     		movs	r0, #2
 430 0050 EDE7     		b	.L58
 431              	.L66:
 432 0052 0221     		movs	r1, #2
 433 0054 0120     		movs	r0, #1
 434 0056 EAE7     		b	.L58
 435              	.L68:
 436 0058 0121     		movs	r1, #1
 437 005a 0020     		movs	r0, #0
 438 005c E7E7     		b	.L58
 439              	.L70:
 440 005e C046     		.align	2
 441              	.L69:
 442 0060 00000000 		.word	.LANCHOR1
 443              		.size	CyDmaChAlloc, .-CyDmaChAlloc
 444              		.section	.text.CyDmaChFree,"ax",%progbits
 445              		.align	2
 446              		.global	CyDmaChFree
 447              		.code	16
 448              		.thumb_func
 449              		.type	CyDmaChFree, %function
 450              	CyDmaChFree:
 451              		@ args = 0, pretend = 0, frame = 0
 452              		@ frame_needed = 0, uses_anonymous_args = 0
 453 0000 10B5     		push	{r4, lr}
 454 0002 0400     		movs	r4, r0
 455 0004 0728     		cmp	r0, #7
 456 0006 02D9     		bls	.L72
ARM GAS  C:\Users\DMA\AppData\Local\Temp\ccp2cm3d.s 			page 9


 457 0008 0020     		movs	r0, #0
 458 000a FFF7FEFF 		bl	CyHalt
 459              	.L72:
 460 000e 0123     		movs	r3, #1
 461 0010 A340     		lsls	r3, r3, r4
 462 0012 034A     		ldr	r2, .L73
 463 0014 0020     		movs	r0, #0
 464 0016 5168     		ldr	r1, [r2, #4]
 465              		@ sp needed
 466 0018 9943     		bics	r1, r3
 467 001a 5160     		str	r1, [r2, #4]
 468 001c 10BD     		pop	{r4, pc}
 469              	.L74:
 470 001e C046     		.align	2
 471              	.L73:
 472 0020 00000000 		.word	.LANCHOR1
 473              		.size	CyDmaChFree, .-CyDmaChFree
 474              		.section	.text.CyDmaChEnable,"ax",%progbits
 475              		.align	2
 476              		.global	CyDmaChEnable
 477              		.code	16
 478              		.thumb_func
 479              		.type	CyDmaChEnable, %function
 480              	CyDmaChEnable:
 481              		@ args = 0, pretend = 0, frame = 0
 482              		@ frame_needed = 0, uses_anonymous_args = 0
 483 0000 10B5     		push	{r4, lr}
 484 0002 0400     		movs	r4, r0
 485 0004 0728     		cmp	r0, #7
 486 0006 02D9     		bls	.L76
 487 0008 0020     		movs	r0, #0
 488 000a FFF7FEFF 		bl	CyHalt
 489              	.L76:
 490 000e 054B     		ldr	r3, .L77
 491 0010 8022     		movs	r2, #128
 492 0012 9C46     		mov	ip, r3
 493 0014 A400     		lsls	r4, r4, #2
 494 0016 6444     		add	r4, r4, ip
 495 0018 2368     		ldr	r3, [r4]
 496 001a 1206     		lsls	r2, r2, #24
 497 001c 1343     		orrs	r3, r2
 498 001e 2360     		str	r3, [r4]
 499              		@ sp needed
 500 0020 10BD     		pop	{r4, pc}
 501              	.L78:
 502 0022 C046     		.align	2
 503              	.L77:
 504 0024 80101040 		.word	1074794624
 505              		.size	CyDmaChEnable, .-CyDmaChEnable
 506              		.section	.text.CyDmaChDisable,"ax",%progbits
 507              		.align	2
 508              		.global	CyDmaChDisable
 509              		.code	16
 510              		.thumb_func
 511              		.type	CyDmaChDisable, %function
 512              	CyDmaChDisable:
 513              		@ args = 0, pretend = 0, frame = 0
ARM GAS  C:\Users\DMA\AppData\Local\Temp\ccp2cm3d.s 			page 10


 514              		@ frame_needed = 0, uses_anonymous_args = 0
 515 0000 10B5     		push	{r4, lr}
 516 0002 0400     		movs	r4, r0
 517 0004 0728     		cmp	r0, #7
 518 0006 02D9     		bls	.L80
 519 0008 0020     		movs	r0, #0
 520 000a FFF7FEFF 		bl	CyHalt
 521              	.L80:
 522 000e 044B     		ldr	r3, .L81
 523 0010 A400     		lsls	r4, r4, #2
 524 0012 9C46     		mov	ip, r3
 525 0014 6444     		add	r4, r4, ip
 526 0016 2368     		ldr	r3, [r4]
 527              		@ sp needed
 528 0018 5B00     		lsls	r3, r3, #1
 529 001a 5B08     		lsrs	r3, r3, #1
 530 001c 2360     		str	r3, [r4]
 531 001e 10BD     		pop	{r4, pc}
 532              	.L82:
 533              		.align	2
 534              	.L81:
 535 0020 80101040 		.word	1074794624
 536              		.size	CyDmaChDisable, .-CyDmaChDisable
 537              		.section	.text.CyDmaTrigger,"ax",%progbits
 538              		.align	2
 539              		.global	CyDmaTrigger
 540              		.code	16
 541              		.thumb_func
 542              		.type	CyDmaTrigger, %function
 543              	CyDmaTrigger:
 544              		@ args = 0, pretend = 0, frame = 0
 545              		@ frame_needed = 0, uses_anonymous_args = 0
 546 0000 10B5     		push	{r4, lr}
 547 0002 0400     		movs	r4, r0
 548 0004 0728     		cmp	r0, #7
 549 0006 02D9     		bls	.L84
 550 0008 0020     		movs	r0, #0
 551 000a FFF7FEFF 		bl	CyHalt
 552              	.L84:
 553 000e 0723     		movs	r3, #7
 554 0010 1C40     		ands	r4, r3
 555 0012 024B     		ldr	r3, .L85
 556              		@ sp needed
 557 0014 1C43     		orrs	r4, r3
 558 0016 024B     		ldr	r3, .L85+4
 559 0018 1C60     		str	r4, [r3]
 560 001a 10BD     		pop	{r4, pc}
 561              	.L86:
 562              		.align	2
 563              	.L85:
 564 001c 000002C0 		.word	-1073610752
 565 0020 00060140 		.word	1073808896
 566              		.size	CyDmaTrigger, .-CyDmaTrigger
 567              		.section	.text.CyDmaSetPriority,"ax",%progbits
 568              		.align	2
 569              		.global	CyDmaSetPriority
 570              		.code	16
ARM GAS  C:\Users\DMA\AppData\Local\Temp\ccp2cm3d.s 			page 11


 571              		.thumb_func
 572              		.type	CyDmaSetPriority, %function
 573              	CyDmaSetPriority:
 574              		@ args = 0, pretend = 0, frame = 0
 575              		@ frame_needed = 0, uses_anonymous_args = 0
 576 0000 70B5     		push	{r4, r5, r6, lr}
 577 0002 0400     		movs	r4, r0
 578 0004 0D00     		movs	r5, r1
 579 0006 0728     		cmp	r0, #7
 580 0008 0FD8     		bhi	.L90
 581              	.L88:
 582 000a 032D     		cmp	r5, #3
 583 000c 02D9     		bls	.L89
 584 000e 0020     		movs	r0, #0
 585 0010 FFF7FEFF 		bl	CyHalt
 586              	.L89:
 587 0014 074B     		ldr	r3, .L91
 588 0016 A400     		lsls	r4, r4, #2
 589 0018 9C46     		mov	ip, r3
 590 001a 6444     		add	r4, r4, ip
 591 001c 2268     		ldr	r2, [r4]
 592 001e 064B     		ldr	r3, .L91+4
 593 0020 2D07     		lsls	r5, r5, #28
 594 0022 1340     		ands	r3, r2
 595 0024 1D43     		orrs	r5, r3
 596 0026 2560     		str	r5, [r4]
 597              		@ sp needed
 598 0028 70BD     		pop	{r4, r5, r6, pc}
 599              	.L90:
 600 002a 0020     		movs	r0, #0
 601 002c FFF7FEFF 		bl	CyHalt
 602 0030 EBE7     		b	.L88
 603              	.L92:
 604 0032 C046     		.align	2
 605              	.L91:
 606 0034 80101040 		.word	1074794624
 607 0038 FFFFFFCF 		.word	-805306369
 608              		.size	CyDmaSetPriority, .-CyDmaSetPriority
 609              		.section	.text.CyDmaGetPriority,"ax",%progbits
 610              		.align	2
 611              		.global	CyDmaGetPriority
 612              		.code	16
 613              		.thumb_func
 614              		.type	CyDmaGetPriority, %function
 615              	CyDmaGetPriority:
 616              		@ args = 0, pretend = 0, frame = 0
 617              		@ frame_needed = 0, uses_anonymous_args = 0
 618 0000 10B5     		push	{r4, lr}
 619 0002 0400     		movs	r4, r0
 620 0004 0728     		cmp	r0, #7
 621 0006 02D9     		bls	.L94
 622 0008 0020     		movs	r0, #0
 623 000a FFF7FEFF 		bl	CyHalt
 624              	.L94:
 625 000e 034B     		ldr	r3, .L95
 626 0010 A400     		lsls	r4, r4, #2
 627 0012 E058     		ldr	r0, [r4, r3]
ARM GAS  C:\Users\DMA\AppData\Local\Temp\ccp2cm3d.s 			page 12


 628              		@ sp needed
 629 0014 8000     		lsls	r0, r0, #2
 630 0016 800F     		lsrs	r0, r0, #30
 631 0018 10BD     		pop	{r4, pc}
 632              	.L96:
 633 001a C046     		.align	2
 634              	.L95:
 635 001c 80101040 		.word	1074794624
 636              		.size	CyDmaGetPriority, .-CyDmaGetPriority
 637              		.section	.text.CyDmaSetNextDescriptor,"ax",%progbits
 638              		.align	2
 639              		.global	CyDmaSetNextDescriptor
 640              		.code	16
 641              		.thumb_func
 642              		.type	CyDmaSetNextDescriptor, %function
 643              	CyDmaSetNextDescriptor:
 644              		@ args = 0, pretend = 0, frame = 0
 645              		@ frame_needed = 0, uses_anonymous_args = 0
 646 0000 70B5     		push	{r4, r5, r6, lr}
 647 0002 0400     		movs	r4, r0
 648 0004 0D00     		movs	r5, r1
 649 0006 0728     		cmp	r0, #7
 650 0008 0FD8     		bhi	.L100
 651              	.L98:
 652 000a 012D     		cmp	r5, #1
 653 000c 02D9     		bls	.L99
 654 000e 0020     		movs	r0, #0
 655 0010 FFF7FEFF 		bl	CyHalt
 656              	.L99:
 657 0014 074B     		ldr	r3, .L101
 658 0016 A400     		lsls	r4, r4, #2
 659 0018 9C46     		mov	ip, r3
 660 001a 6444     		add	r4, r4, ip
 661 001c 2268     		ldr	r2, [r4]
 662 001e 064B     		ldr	r3, .L101+4
 663 0020 AD07     		lsls	r5, r5, #30
 664 0022 1340     		ands	r3, r2
 665 0024 1D43     		orrs	r5, r3
 666 0026 2560     		str	r5, [r4]
 667              		@ sp needed
 668 0028 70BD     		pop	{r4, r5, r6, pc}
 669              	.L100:
 670 002a 0020     		movs	r0, #0
 671 002c FFF7FEFF 		bl	CyHalt
 672 0030 EBE7     		b	.L98
 673              	.L102:
 674 0032 C046     		.align	2
 675              	.L101:
 676 0034 80101040 		.word	1074794624
 677 0038 FFFFFFBF 		.word	-1073741825
 678              		.size	CyDmaSetNextDescriptor, .-CyDmaSetNextDescriptor
 679              		.section	.text.CyDmaGetNextDescriptor,"ax",%progbits
 680              		.align	2
 681              		.global	CyDmaGetNextDescriptor
 682              		.code	16
 683              		.thumb_func
 684              		.type	CyDmaGetNextDescriptor, %function
ARM GAS  C:\Users\DMA\AppData\Local\Temp\ccp2cm3d.s 			page 13


 685              	CyDmaGetNextDescriptor:
 686              		@ args = 0, pretend = 0, frame = 0
 687              		@ frame_needed = 0, uses_anonymous_args = 0
 688 0000 10B5     		push	{r4, lr}
 689 0002 0400     		movs	r4, r0
 690 0004 0728     		cmp	r0, #7
 691 0006 02D9     		bls	.L104
 692 0008 0020     		movs	r0, #0
 693 000a FFF7FEFF 		bl	CyHalt
 694              	.L104:
 695 000e 034B     		ldr	r3, .L105
 696 0010 A400     		lsls	r4, r4, #2
 697 0012 E058     		ldr	r0, [r4, r3]
 698              		@ sp needed
 699 0014 4000     		lsls	r0, r0, #1
 700 0016 C00F     		lsrs	r0, r0, #31
 701 0018 10BD     		pop	{r4, pc}
 702              	.L106:
 703 001a C046     		.align	2
 704              	.L105:
 705 001c 80101040 		.word	1074794624
 706              		.size	CyDmaGetNextDescriptor, .-CyDmaGetNextDescriptor
 707              		.section	.text.CyDmaSetConfiguration,"ax",%progbits
 708              		.align	2
 709              		.global	CyDmaSetConfiguration
 710              		.code	16
 711              		.thumb_func
 712              		.type	CyDmaSetConfiguration, %function
 713              	CyDmaSetConfiguration:
 714              		@ args = 0, pretend = 0, frame = 0
 715              		@ frame_needed = 0, uses_anonymous_args = 0
 716 0000 70B5     		push	{r4, r5, r6, lr}
 717 0002 0600     		movs	r6, r0
 718 0004 0D00     		movs	r5, r1
 719 0006 1400     		movs	r4, r2
 720 0008 0728     		cmp	r0, #7
 721 000a 5ED8     		bhi	.L138
 722              	.L108:
 723 000c 012D     		cmp	r5, #1
 724 000e 02D9     		bls	.L109
 725 0010 0020     		movs	r0, #0
 726 0012 FFF7FEFF 		bl	CyHalt
 727              	.L109:
 728 0016 2F4B     		ldr	r3, .L146
 729 0018 2268     		ldr	r2, [r4]
 730 001a 1A42     		tst	r2, r3
 731 001c 51D1     		bne	.L139
 732              	.L110:
 733 001e 6368     		ldr	r3, [r4, #4]
 734 0020 2D4A     		ldr	r2, .L146+4
 735 0022 013B     		subs	r3, r3, #1
 736 0024 9342     		cmp	r3, r2
 737 0026 48D8     		bhi	.L140
 738              	.L111:
 739 0028 2C4B     		ldr	r3, .L146+8
 740 002a A268     		ldr	r2, [r4, #8]
 741 002c 1A42     		tst	r2, r3
ARM GAS  C:\Users\DMA\AppData\Local\Temp\ccp2cm3d.s 			page 14


 742 002e 40D1     		bne	.L141
 743              	.L112:
 744 0030 2B4B     		ldr	r3, .L146+12
 745 0032 E268     		ldr	r2, [r4, #12]
 746 0034 1A42     		tst	r2, r3
 747 0036 38D1     		bne	.L142
 748              	.L113:
 749 0038 2A4B     		ldr	r3, .L146+16
 750 003a 2269     		ldr	r2, [r4, #16]
 751 003c 1A42     		tst	r2, r3
 752 003e 30D1     		bne	.L143
 753              	.L114:
 754 0040 6369     		ldr	r3, [r4, #20]
 755 0042 9B00     		lsls	r3, r3, #2
 756 0044 29D1     		bne	.L144
 757              	.L115:
 758 0046 284B     		ldr	r3, .L146+20
 759 0048 A269     		ldr	r2, [r4, #24]
 760 004a 1A42     		tst	r2, r3
 761 004c 21D1     		bne	.L145
 762              	.L116:
 763 004e 274A     		ldr	r2, .L146+24
 764 0050 E369     		ldr	r3, [r4, #28]
 765 0052 1342     		tst	r3, r2
 766 0054 03D0     		beq	.L117
 767 0056 0020     		movs	r0, #0
 768 0058 FFF7FEFF 		bl	CyHalt
 769 005c E369     		ldr	r3, [r4, #28]
 770              	.L117:
 771 005e A168     		ldr	r1, [r4, #8]
 772 0060 2268     		ldr	r2, [r4]
 773 0062 7600     		lsls	r6, r6, #1
 774 0064 0A43     		orrs	r2, r1
 775 0066 E168     		ldr	r1, [r4, #12]
 776 0068 7519     		adds	r5, r6, r5
 777 006a 0A43     		orrs	r2, r1
 778 006c 2169     		ldr	r1, [r4, #16]
 779 006e 2D01     		lsls	r5, r5, #4
 780 0070 0A43     		orrs	r2, r1
 781 0072 6169     		ldr	r1, [r4, #20]
 782              		@ sp needed
 783 0074 0A43     		orrs	r2, r1
 784 0076 A169     		ldr	r1, [r4, #24]
 785 0078 0A43     		orrs	r2, r1
 786 007a 6168     		ldr	r1, [r4, #4]
 787 007c 0139     		subs	r1, r1, #1
 788 007e 0A43     		orrs	r2, r1
 789 0080 1343     		orrs	r3, r2
 790 0082 1B4A     		ldr	r2, .L146+28
 791 0084 9446     		mov	ip, r2
 792 0086 6544     		add	r5, r5, ip
 793 0088 AB60     		str	r3, [r5, #8]
 794 008a 8023     		movs	r3, #128
 795 008c 1B06     		lsls	r3, r3, #24
 796 008e EB60     		str	r3, [r5, #12]
 797 0090 70BD     		pop	{r4, r5, r6, pc}
 798              	.L145:
ARM GAS  C:\Users\DMA\AppData\Local\Temp\ccp2cm3d.s 			page 15


 799 0092 0020     		movs	r0, #0
 800 0094 FFF7FEFF 		bl	CyHalt
 801 0098 D9E7     		b	.L116
 802              	.L144:
 803 009a 0020     		movs	r0, #0
 804 009c FFF7FEFF 		bl	CyHalt
 805 00a0 D1E7     		b	.L115
 806              	.L143:
 807 00a2 0020     		movs	r0, #0
 808 00a4 FFF7FEFF 		bl	CyHalt
 809 00a8 CAE7     		b	.L114
 810              	.L142:
 811 00aa 0020     		movs	r0, #0
 812 00ac FFF7FEFF 		bl	CyHalt
 813 00b0 C2E7     		b	.L113
 814              	.L141:
 815 00b2 0020     		movs	r0, #0
 816 00b4 FFF7FEFF 		bl	CyHalt
 817 00b8 BAE7     		b	.L112
 818              	.L140:
 819 00ba 0020     		movs	r0, #0
 820 00bc FFF7FEFF 		bl	CyHalt
 821 00c0 B2E7     		b	.L111
 822              	.L139:
 823 00c2 0020     		movs	r0, #0
 824 00c4 FFF7FEFF 		bl	CyHalt
 825 00c8 A9E7     		b	.L110
 826              	.L138:
 827 00ca 0020     		movs	r0, #0
 828 00cc FFF7FEFF 		bl	CyHalt
 829 00d0 9CE7     		b	.L108
 830              	.L147:
 831 00d2 C046     		.align	2
 832              	.L146:
 833 00d4 FFFFFCFF 		.word	-196609
 834 00d8 FFFF0000 		.word	65535
 835 00dc FFFFAFFF 		.word	-5242881
 836 00e0 FFFF5FFF 		.word	-10485761
 837 00e4 FFFFFFFC 		.word	-50331649
 838 00e8 FFFFFFEF 		.word	-268435457
 839 00ec FFFFFFD3 		.word	-738197505
 840 00f0 00181040 		.word	1074796544
 841              		.size	CyDmaSetConfiguration, .-CyDmaSetConfiguration
 842              		.section	.text.CyDmaValidateDescriptor,"ax",%progbits
 843              		.align	2
 844              		.global	CyDmaValidateDescriptor
 845              		.code	16
 846              		.thumb_func
 847              		.type	CyDmaValidateDescriptor, %function
 848              	CyDmaValidateDescriptor:
 849              		@ args = 0, pretend = 0, frame = 0
 850              		@ frame_needed = 0, uses_anonymous_args = 0
 851 0000 70B5     		push	{r4, r5, r6, lr}
 852 0002 0500     		movs	r5, r0
 853 0004 0C00     		movs	r4, r1
 854 0006 0728     		cmp	r0, #7
 855 0008 0ED8     		bhi	.L151
ARM GAS  C:\Users\DMA\AppData\Local\Temp\ccp2cm3d.s 			page 16


 856              	.L149:
 857 000a 012C     		cmp	r4, #1
 858 000c 02D9     		bls	.L150
 859 000e 0020     		movs	r0, #0
 860 0010 FFF7FEFF 		bl	CyHalt
 861              	.L150:
 862 0014 064B     		ldr	r3, .L152
 863 0016 6D00     		lsls	r5, r5, #1
 864 0018 9C46     		mov	ip, r3
 865 001a 8023     		movs	r3, #128
 866 001c 2C19     		adds	r4, r5, r4
 867 001e 2401     		lsls	r4, r4, #4
 868 0020 6444     		add	r4, r4, ip
 869 0022 1B06     		lsls	r3, r3, #24
 870 0024 E360     		str	r3, [r4, #12]
 871              		@ sp needed
 872 0026 70BD     		pop	{r4, r5, r6, pc}
 873              	.L151:
 874 0028 0020     		movs	r0, #0
 875 002a FFF7FEFF 		bl	CyHalt
 876 002e ECE7     		b	.L149
 877              	.L153:
 878              		.align	2
 879              	.L152:
 880 0030 00181040 		.word	1074796544
 881              		.size	CyDmaValidateDescriptor, .-CyDmaValidateDescriptor
 882              		.section	.text.CyDmaGetDescriptorStatus,"ax",%progbits
 883              		.align	2
 884              		.global	CyDmaGetDescriptorStatus
 885              		.code	16
 886              		.thumb_func
 887              		.type	CyDmaGetDescriptorStatus, %function
 888              	CyDmaGetDescriptorStatus:
 889              		@ args = 0, pretend = 0, frame = 0
 890              		@ frame_needed = 0, uses_anonymous_args = 0
 891 0000 70B5     		push	{r4, r5, r6, lr}
 892 0002 0500     		movs	r5, r0
 893 0004 0C00     		movs	r4, r1
 894 0006 0728     		cmp	r0, #7
 895 0008 0CD8     		bhi	.L157
 896              	.L155:
 897 000a 012C     		cmp	r4, #1
 898 000c 02D9     		bls	.L156
 899 000e 0020     		movs	r0, #0
 900 0010 FFF7FEFF 		bl	CyHalt
 901              	.L156:
 902 0014 054B     		ldr	r3, .L158
 903 0016 6D00     		lsls	r5, r5, #1
 904 0018 9C46     		mov	ip, r3
 905 001a 2C19     		adds	r4, r5, r4
 906 001c 2401     		lsls	r4, r4, #4
 907 001e 6444     		add	r4, r4, ip
 908 0020 E068     		ldr	r0, [r4, #12]
 909              		@ sp needed
 910 0022 70BD     		pop	{r4, r5, r6, pc}
 911              	.L157:
 912 0024 0020     		movs	r0, #0
ARM GAS  C:\Users\DMA\AppData\Local\Temp\ccp2cm3d.s 			page 17


 913 0026 FFF7FEFF 		bl	CyHalt
 914 002a EEE7     		b	.L155
 915              	.L159:
 916              		.align	2
 917              	.L158:
 918 002c 00181040 		.word	1074796544
 919              		.size	CyDmaGetDescriptorStatus, .-CyDmaGetDescriptorStatus
 920              		.section	.text.CyDmaSetSrcAddress,"ax",%progbits
 921              		.align	2
 922              		.global	CyDmaSetSrcAddress
 923              		.code	16
 924              		.thumb_func
 925              		.type	CyDmaSetSrcAddress, %function
 926              	CyDmaSetSrcAddress:
 927              		@ args = 0, pretend = 0, frame = 0
 928              		@ frame_needed = 0, uses_anonymous_args = 0
 929 0000 70B5     		push	{r4, r5, r6, lr}
 930 0002 0500     		movs	r5, r0
 931 0004 0C00     		movs	r4, r1
 932 0006 1600     		movs	r6, r2
 933 0008 0728     		cmp	r0, #7
 934 000a 0AD8     		bhi	.L163
 935              	.L161:
 936 000c 012C     		cmp	r4, #1
 937 000e 02D9     		bls	.L162
 938 0010 0020     		movs	r0, #0
 939 0012 FFF7FEFF 		bl	CyHalt
 940              	.L162:
 941 0016 6D00     		lsls	r5, r5, #1
 942 0018 2C19     		adds	r4, r5, r4
 943 001a 044B     		ldr	r3, .L164
 944 001c 2401     		lsls	r4, r4, #4
 945 001e E650     		str	r6, [r4, r3]
 946              		@ sp needed
 947 0020 70BD     		pop	{r4, r5, r6, pc}
 948              	.L163:
 949 0022 0020     		movs	r0, #0
 950 0024 FFF7FEFF 		bl	CyHalt
 951 0028 F0E7     		b	.L161
 952              	.L165:
 953 002a C046     		.align	2
 954              	.L164:
 955 002c 00181040 		.word	1074796544
 956              		.size	CyDmaSetSrcAddress, .-CyDmaSetSrcAddress
 957              		.section	.text.CyDmaGetSrcAddress,"ax",%progbits
 958              		.align	2
 959              		.global	CyDmaGetSrcAddress
 960              		.code	16
 961              		.thumb_func
 962              		.type	CyDmaGetSrcAddress, %function
 963              	CyDmaGetSrcAddress:
 964              		@ args = 0, pretend = 0, frame = 0
 965              		@ frame_needed = 0, uses_anonymous_args = 0
 966 0000 70B5     		push	{r4, r5, r6, lr}
 967 0002 0500     		movs	r5, r0
 968 0004 0C00     		movs	r4, r1
 969 0006 0728     		cmp	r0, #7
ARM GAS  C:\Users\DMA\AppData\Local\Temp\ccp2cm3d.s 			page 18


 970 0008 0AD8     		bhi	.L169
 971              	.L167:
 972 000a 012C     		cmp	r4, #1
 973 000c 02D9     		bls	.L168
 974 000e 0020     		movs	r0, #0
 975 0010 FFF7FEFF 		bl	CyHalt
 976              	.L168:
 977 0014 6D00     		lsls	r5, r5, #1
 978 0016 2C19     		adds	r4, r5, r4
 979 0018 034B     		ldr	r3, .L170
 980 001a 2401     		lsls	r4, r4, #4
 981 001c E058     		ldr	r0, [r4, r3]
 982              		@ sp needed
 983 001e 70BD     		pop	{r4, r5, r6, pc}
 984              	.L169:
 985 0020 0020     		movs	r0, #0
 986 0022 FFF7FEFF 		bl	CyHalt
 987 0026 F0E7     		b	.L167
 988              	.L171:
 989              		.align	2
 990              	.L170:
 991 0028 00181040 		.word	1074796544
 992              		.size	CyDmaGetSrcAddress, .-CyDmaGetSrcAddress
 993              		.section	.text.CyDmaSetDstAddress,"ax",%progbits
 994              		.align	2
 995              		.global	CyDmaSetDstAddress
 996              		.code	16
 997              		.thumb_func
 998              		.type	CyDmaSetDstAddress, %function
 999              	CyDmaSetDstAddress:
 1000              		@ args = 0, pretend = 0, frame = 0
 1001              		@ frame_needed = 0, uses_anonymous_args = 0
 1002 0000 70B5     		push	{r4, r5, r6, lr}
 1003 0002 0500     		movs	r5, r0
 1004 0004 0C00     		movs	r4, r1
 1005 0006 1600     		movs	r6, r2
 1006 0008 0728     		cmp	r0, #7
 1007 000a 0CD8     		bhi	.L175
 1008              	.L173:
 1009 000c 012C     		cmp	r4, #1
 1010 000e 02D9     		bls	.L174
 1011 0010 0020     		movs	r0, #0
 1012 0012 FFF7FEFF 		bl	CyHalt
 1013              	.L174:
 1014 0016 064B     		ldr	r3, .L176
 1015 0018 6D00     		lsls	r5, r5, #1
 1016 001a 9C46     		mov	ip, r3
 1017 001c 2C19     		adds	r4, r5, r4
 1018 001e 2401     		lsls	r4, r4, #4
 1019 0020 6444     		add	r4, r4, ip
 1020 0022 6660     		str	r6, [r4, #4]
 1021              		@ sp needed
 1022 0024 70BD     		pop	{r4, r5, r6, pc}
 1023              	.L175:
 1024 0026 0020     		movs	r0, #0
 1025 0028 FFF7FEFF 		bl	CyHalt
 1026 002c EEE7     		b	.L173
ARM GAS  C:\Users\DMA\AppData\Local\Temp\ccp2cm3d.s 			page 19


 1027              	.L177:
 1028 002e C046     		.align	2
 1029              	.L176:
 1030 0030 00181040 		.word	1074796544
 1031              		.size	CyDmaSetDstAddress, .-CyDmaSetDstAddress
 1032              		.section	.text.CyDmaGetDstAddress,"ax",%progbits
 1033              		.align	2
 1034              		.global	CyDmaGetDstAddress
 1035              		.code	16
 1036              		.thumb_func
 1037              		.type	CyDmaGetDstAddress, %function
 1038              	CyDmaGetDstAddress:
 1039              		@ args = 0, pretend = 0, frame = 0
 1040              		@ frame_needed = 0, uses_anonymous_args = 0
 1041 0000 70B5     		push	{r4, r5, r6, lr}
 1042 0002 0500     		movs	r5, r0
 1043 0004 0C00     		movs	r4, r1
 1044 0006 0728     		cmp	r0, #7
 1045 0008 0CD8     		bhi	.L181
 1046              	.L179:
 1047 000a 012C     		cmp	r4, #1
 1048 000c 02D9     		bls	.L180
 1049 000e 0020     		movs	r0, #0
 1050 0010 FFF7FEFF 		bl	CyHalt
 1051              	.L180:
 1052 0014 054B     		ldr	r3, .L182
 1053 0016 6D00     		lsls	r5, r5, #1
 1054 0018 9C46     		mov	ip, r3
 1055 001a 2C19     		adds	r4, r5, r4
 1056 001c 2401     		lsls	r4, r4, #4
 1057 001e 6444     		add	r4, r4, ip
 1058 0020 6068     		ldr	r0, [r4, #4]
 1059              		@ sp needed
 1060 0022 70BD     		pop	{r4, r5, r6, pc}
 1061              	.L181:
 1062 0024 0020     		movs	r0, #0
 1063 0026 FFF7FEFF 		bl	CyHalt
 1064 002a EEE7     		b	.L179
 1065              	.L183:
 1066              		.align	2
 1067              	.L182:
 1068 002c 00181040 		.word	1074796544
 1069              		.size	CyDmaGetDstAddress, .-CyDmaGetDstAddress
 1070              		.section	.text.CyDmaSetDataElementSize,"ax",%progbits
 1071              		.align	2
 1072              		.global	CyDmaSetDataElementSize
 1073              		.code	16
 1074              		.thumb_func
 1075              		.type	CyDmaSetDataElementSize, %function
 1076              	CyDmaSetDataElementSize:
 1077              		@ args = 0, pretend = 0, frame = 0
 1078              		@ frame_needed = 0, uses_anonymous_args = 0
 1079 0000 70B5     		push	{r4, r5, r6, lr}
 1080 0002 0600     		movs	r6, r0
 1081 0004 0C00     		movs	r4, r1
 1082 0006 1500     		movs	r5, r2
 1083 0008 0728     		cmp	r0, #7
ARM GAS  C:\Users\DMA\AppData\Local\Temp\ccp2cm3d.s 			page 20


 1084 000a 16D8     		bhi	.L191
 1085              	.L185:
 1086 000c 012C     		cmp	r4, #1
 1087 000e 02D9     		bls	.L186
 1088 0010 0020     		movs	r0, #0
 1089 0012 FFF7FEFF 		bl	CyHalt
 1090              	.L186:
 1091 0016 0B4B     		ldr	r3, .L192
 1092 0018 1D42     		tst	r5, r3
 1093 001a 02D0     		beq	.L187
 1094 001c 0020     		movs	r0, #0
 1095 001e FFF7FEFF 		bl	CyHalt
 1096              	.L187:
 1097 0022 094B     		ldr	r3, .L192+4
 1098 0024 7600     		lsls	r6, r6, #1
 1099 0026 9C46     		mov	ip, r3
 1100 0028 3419     		adds	r4, r6, r4
 1101 002a 2401     		lsls	r4, r4, #4
 1102 002c 6444     		add	r4, r4, ip
 1103 002e A268     		ldr	r2, [r4, #8]
 1104 0030 044B     		ldr	r3, .L192
 1105              		@ sp needed
 1106 0032 1340     		ands	r3, r2
 1107 0034 1D43     		orrs	r5, r3
 1108 0036 A560     		str	r5, [r4, #8]
 1109 0038 70BD     		pop	{r4, r5, r6, pc}
 1110              	.L191:
 1111 003a 0020     		movs	r0, #0
 1112 003c FFF7FEFF 		bl	CyHalt
 1113 0040 E4E7     		b	.L185
 1114              	.L193:
 1115 0042 C046     		.align	2
 1116              	.L192:
 1117 0044 FFFFFCFF 		.word	-196609
 1118 0048 00181040 		.word	1074796544
 1119              		.size	CyDmaSetDataElementSize, .-CyDmaSetDataElementSize
 1120              		.section	.text.CyDmaGetDataElementSize,"ax",%progbits
 1121              		.align	2
 1122              		.global	CyDmaGetDataElementSize
 1123              		.code	16
 1124              		.thumb_func
 1125              		.type	CyDmaGetDataElementSize, %function
 1126              	CyDmaGetDataElementSize:
 1127              		@ args = 0, pretend = 0, frame = 0
 1128              		@ frame_needed = 0, uses_anonymous_args = 0
 1129 0000 70B5     		push	{r4, r5, r6, lr}
 1130 0002 0500     		movs	r5, r0
 1131 0004 0C00     		movs	r4, r1
 1132 0006 0728     		cmp	r0, #7
 1133 0008 0FD8     		bhi	.L197
 1134              	.L195:
 1135 000a 012C     		cmp	r4, #1
 1136 000c 02D9     		bls	.L196
 1137 000e 0020     		movs	r0, #0
 1138 0010 FFF7FEFF 		bl	CyHalt
 1139              	.L196:
 1140 0014 074B     		ldr	r3, .L198
ARM GAS  C:\Users\DMA\AppData\Local\Temp\ccp2cm3d.s 			page 21


 1141 0016 6D00     		lsls	r5, r5, #1
 1142 0018 9C46     		mov	ip, r3
 1143 001a C023     		movs	r3, #192
 1144 001c 2C19     		adds	r4, r5, r4
 1145 001e 2401     		lsls	r4, r4, #4
 1146 0020 6444     		add	r4, r4, ip
 1147 0022 A068     		ldr	r0, [r4, #8]
 1148 0024 9B02     		lsls	r3, r3, #10
 1149 0026 1840     		ands	r0, r3
 1150              		@ sp needed
 1151 0028 70BD     		pop	{r4, r5, r6, pc}
 1152              	.L197:
 1153 002a 0020     		movs	r0, #0
 1154 002c FFF7FEFF 		bl	CyHalt
 1155 0030 EBE7     		b	.L195
 1156              	.L199:
 1157 0032 C046     		.align	2
 1158              	.L198:
 1159 0034 00181040 		.word	1074796544
 1160              		.size	CyDmaGetDataElementSize, .-CyDmaGetDataElementSize
 1161              		.section	.text.CyDmaSetNumDataElements,"ax",%progbits
 1162              		.align	2
 1163              		.global	CyDmaSetNumDataElements
 1164              		.code	16
 1165              		.thumb_func
 1166              		.type	CyDmaSetNumDataElements, %function
 1167              	CyDmaSetNumDataElements:
 1168              		@ args = 0, pretend = 0, frame = 0
 1169              		@ frame_needed = 0, uses_anonymous_args = 0
 1170 0000 70B5     		push	{r4, r5, r6, lr}
 1171 0002 0600     		movs	r6, r0
 1172 0004 0C00     		movs	r4, r1
 1173 0006 1500     		movs	r5, r2
 1174 0008 0728     		cmp	r0, #7
 1175 000a 17D8     		bhi	.L204
 1176              	.L201:
 1177 000c 012C     		cmp	r4, #1
 1178 000e 02D9     		bls	.L202
 1179 0010 0020     		movs	r0, #0
 1180 0012 FFF7FEFF 		bl	CyHalt
 1181              	.L202:
 1182 0016 0B4B     		ldr	r3, .L205
 1183 0018 013D     		subs	r5, r5, #1
 1184 001a 9D42     		cmp	r5, r3
 1185 001c 02D9     		bls	.L203
 1186 001e 0020     		movs	r0, #0
 1187 0020 FFF7FEFF 		bl	CyHalt
 1188              	.L203:
 1189 0024 084B     		ldr	r3, .L205+4
 1190 0026 7600     		lsls	r6, r6, #1
 1191 0028 9C46     		mov	ip, r3
 1192 002a 3419     		adds	r4, r6, r4
 1193 002c 2401     		lsls	r4, r4, #4
 1194 002e 6444     		add	r4, r4, ip
 1195 0030 A368     		ldr	r3, [r4, #8]
 1196              		@ sp needed
 1197 0032 1B0C     		lsrs	r3, r3, #16
ARM GAS  C:\Users\DMA\AppData\Local\Temp\ccp2cm3d.s 			page 22


 1198 0034 1B04     		lsls	r3, r3, #16
 1199 0036 1D43     		orrs	r5, r3
 1200 0038 A560     		str	r5, [r4, #8]
 1201 003a 70BD     		pop	{r4, r5, r6, pc}
 1202              	.L204:
 1203 003c 0020     		movs	r0, #0
 1204 003e FFF7FEFF 		bl	CyHalt
 1205 0042 E3E7     		b	.L201
 1206              	.L206:
 1207              		.align	2
 1208              	.L205:
 1209 0044 FFFF0000 		.word	65535
 1210 0048 00181040 		.word	1074796544
 1211              		.size	CyDmaSetNumDataElements, .-CyDmaSetNumDataElements
 1212              		.section	.text.CyDmaGetNumDataElements,"ax",%progbits
 1213              		.align	2
 1214              		.global	CyDmaGetNumDataElements
 1215              		.code	16
 1216              		.thumb_func
 1217              		.type	CyDmaGetNumDataElements, %function
 1218              	CyDmaGetNumDataElements:
 1219              		@ args = 0, pretend = 0, frame = 0
 1220              		@ frame_needed = 0, uses_anonymous_args = 0
 1221 0000 70B5     		push	{r4, r5, r6, lr}
 1222 0002 0500     		movs	r5, r0
 1223 0004 0C00     		movs	r4, r1
 1224 0006 0728     		cmp	r0, #7
 1225 0008 0FD8     		bhi	.L210
 1226              	.L208:
 1227 000a 012C     		cmp	r4, #1
 1228 000c 02D9     		bls	.L209
 1229 000e 0020     		movs	r0, #0
 1230 0010 FFF7FEFF 		bl	CyHalt
 1231              	.L209:
 1232 0014 074B     		ldr	r3, .L211
 1233 0016 6D00     		lsls	r5, r5, #1
 1234 0018 9C46     		mov	ip, r3
 1235 001a 2C19     		adds	r4, r5, r4
 1236 001c 2401     		lsls	r4, r4, #4
 1237 001e 6444     		add	r4, r4, ip
 1238 0020 A068     		ldr	r0, [r4, #8]
 1239              		@ sp needed
 1240 0022 0004     		lsls	r0, r0, #16
 1241 0024 000C     		lsrs	r0, r0, #16
 1242 0026 0130     		adds	r0, r0, #1
 1243 0028 70BD     		pop	{r4, r5, r6, pc}
 1244              	.L210:
 1245 002a 0020     		movs	r0, #0
 1246 002c FFF7FEFF 		bl	CyHalt
 1247 0030 EBE7     		b	.L208
 1248              	.L212:
 1249 0032 C046     		.align	2
 1250              	.L211:
 1251 0034 00181040 		.word	1074796544
 1252              		.size	CyDmaGetNumDataElements, .-CyDmaGetNumDataElements
 1253              		.section	.text.CyDmaSetSrcDstTransferWidth,"ax",%progbits
 1254              		.align	2
ARM GAS  C:\Users\DMA\AppData\Local\Temp\ccp2cm3d.s 			page 23


 1255              		.global	CyDmaSetSrcDstTransferWidth
 1256              		.code	16
 1257              		.thumb_func
 1258              		.type	CyDmaSetSrcDstTransferWidth, %function
 1259              	CyDmaSetSrcDstTransferWidth:
 1260              		@ args = 0, pretend = 0, frame = 0
 1261              		@ frame_needed = 0, uses_anonymous_args = 0
 1262 0000 70B5     		push	{r4, r5, r6, lr}
 1263 0002 0600     		movs	r6, r0
 1264 0004 0C00     		movs	r4, r1
 1265 0006 1500     		movs	r5, r2
 1266 0008 0728     		cmp	r0, #7
 1267 000a 16D8     		bhi	.L220
 1268              	.L214:
 1269 000c 012C     		cmp	r4, #1
 1270 000e 02D9     		bls	.L215
 1271 0010 0020     		movs	r0, #0
 1272 0012 FFF7FEFF 		bl	CyHalt
 1273              	.L215:
 1274 0016 0B4B     		ldr	r3, .L221
 1275 0018 1D42     		tst	r5, r3
 1276 001a 02D0     		beq	.L216
 1277 001c 0020     		movs	r0, #0
 1278 001e FFF7FEFF 		bl	CyHalt
 1279              	.L216:
 1280 0022 094B     		ldr	r3, .L221+4
 1281 0024 7600     		lsls	r6, r6, #1
 1282 0026 9C46     		mov	ip, r3
 1283 0028 3419     		adds	r4, r6, r4
 1284 002a 2401     		lsls	r4, r4, #4
 1285 002c 6444     		add	r4, r4, ip
 1286 002e A268     		ldr	r2, [r4, #8]
 1287 0030 044B     		ldr	r3, .L221
 1288              		@ sp needed
 1289 0032 1340     		ands	r3, r2
 1290 0034 1D43     		orrs	r5, r3
 1291 0036 A560     		str	r5, [r4, #8]
 1292 0038 70BD     		pop	{r4, r5, r6, pc}
 1293              	.L220:
 1294 003a 0020     		movs	r0, #0
 1295 003c FFF7FEFF 		bl	CyHalt
 1296 0040 E4E7     		b	.L214
 1297              	.L222:
 1298 0042 C046     		.align	2
 1299              	.L221:
 1300 0044 FFFFAFFF 		.word	-5242881
 1301 0048 00181040 		.word	1074796544
 1302              		.size	CyDmaSetSrcDstTransferWidth, .-CyDmaSetSrcDstTransferWidth
 1303              		.section	.text.CyDmaGetSrcDstTransferWidth,"ax",%progbits
 1304              		.align	2
 1305              		.global	CyDmaGetSrcDstTransferWidth
 1306              		.code	16
 1307              		.thumb_func
 1308              		.type	CyDmaGetSrcDstTransferWidth, %function
 1309              	CyDmaGetSrcDstTransferWidth:
 1310              		@ args = 0, pretend = 0, frame = 0
 1311              		@ frame_needed = 0, uses_anonymous_args = 0
ARM GAS  C:\Users\DMA\AppData\Local\Temp\ccp2cm3d.s 			page 24


 1312 0000 70B5     		push	{r4, r5, r6, lr}
 1313 0002 0500     		movs	r5, r0
 1314 0004 0C00     		movs	r4, r1
 1315 0006 0728     		cmp	r0, #7
 1316 0008 0FD8     		bhi	.L226
 1317              	.L224:
 1318 000a 012C     		cmp	r4, #1
 1319 000c 02D9     		bls	.L225
 1320 000e 0020     		movs	r0, #0
 1321 0010 FFF7FEFF 		bl	CyHalt
 1322              	.L225:
 1323 0014 074B     		ldr	r3, .L227
 1324 0016 6D00     		lsls	r5, r5, #1
 1325 0018 9C46     		mov	ip, r3
 1326 001a A023     		movs	r3, #160
 1327 001c 2C19     		adds	r4, r5, r4
 1328 001e 2401     		lsls	r4, r4, #4
 1329 0020 6444     		add	r4, r4, ip
 1330 0022 A068     		ldr	r0, [r4, #8]
 1331 0024 DB03     		lsls	r3, r3, #15
 1332 0026 1840     		ands	r0, r3
 1333              		@ sp needed
 1334 0028 70BD     		pop	{r4, r5, r6, pc}
 1335              	.L226:
 1336 002a 0020     		movs	r0, #0
 1337 002c FFF7FEFF 		bl	CyHalt
 1338 0030 EBE7     		b	.L224
 1339              	.L228:
 1340 0032 C046     		.align	2
 1341              	.L227:
 1342 0034 00181040 		.word	1074796544
 1343              		.size	CyDmaGetSrcDstTransferWidth, .-CyDmaGetSrcDstTransferWidth
 1344              		.section	.text.CyDmaSetAddressIncrement,"ax",%progbits
 1345              		.align	2
 1346              		.global	CyDmaSetAddressIncrement
 1347              		.code	16
 1348              		.thumb_func
 1349              		.type	CyDmaSetAddressIncrement, %function
 1350              	CyDmaSetAddressIncrement:
 1351              		@ args = 0, pretend = 0, frame = 0
 1352              		@ frame_needed = 0, uses_anonymous_args = 0
 1353 0000 70B5     		push	{r4, r5, r6, lr}
 1354 0002 0600     		movs	r6, r0
 1355 0004 0C00     		movs	r4, r1
 1356 0006 1500     		movs	r5, r2
 1357 0008 0728     		cmp	r0, #7
 1358 000a 16D8     		bhi	.L236
 1359              	.L230:
 1360 000c 012C     		cmp	r4, #1
 1361 000e 02D9     		bls	.L231
 1362 0010 0020     		movs	r0, #0
 1363 0012 FFF7FEFF 		bl	CyHalt
 1364              	.L231:
 1365 0016 0B4B     		ldr	r3, .L237
 1366 0018 1D42     		tst	r5, r3
 1367 001a 02D0     		beq	.L232
 1368 001c 0020     		movs	r0, #0
ARM GAS  C:\Users\DMA\AppData\Local\Temp\ccp2cm3d.s 			page 25


 1369 001e FFF7FEFF 		bl	CyHalt
 1370              	.L232:
 1371 0022 094B     		ldr	r3, .L237+4
 1372 0024 7600     		lsls	r6, r6, #1
 1373 0026 9C46     		mov	ip, r3
 1374 0028 3419     		adds	r4, r6, r4
 1375 002a 2401     		lsls	r4, r4, #4
 1376 002c 6444     		add	r4, r4, ip
 1377 002e A268     		ldr	r2, [r4, #8]
 1378 0030 044B     		ldr	r3, .L237
 1379              		@ sp needed
 1380 0032 1340     		ands	r3, r2
 1381 0034 1D43     		orrs	r5, r3
 1382 0036 A560     		str	r5, [r4, #8]
 1383 0038 70BD     		pop	{r4, r5, r6, pc}
 1384              	.L236:
 1385 003a 0020     		movs	r0, #0
 1386 003c FFF7FEFF 		bl	CyHalt
 1387 0040 E4E7     		b	.L230
 1388              	.L238:
 1389 0042 C046     		.align	2
 1390              	.L237:
 1391 0044 FFFF5FFF 		.word	-10485761
 1392 0048 00181040 		.word	1074796544
 1393              		.size	CyDmaSetAddressIncrement, .-CyDmaSetAddressIncrement
 1394              		.section	.text.CyDmaGetAddressIncrement,"ax",%progbits
 1395              		.align	2
 1396              		.global	CyDmaGetAddressIncrement
 1397              		.code	16
 1398              		.thumb_func
 1399              		.type	CyDmaGetAddressIncrement, %function
 1400              	CyDmaGetAddressIncrement:
 1401              		@ args = 0, pretend = 0, frame = 0
 1402              		@ frame_needed = 0, uses_anonymous_args = 0
 1403 0000 70B5     		push	{r4, r5, r6, lr}
 1404 0002 0500     		movs	r5, r0
 1405 0004 0C00     		movs	r4, r1
 1406 0006 0728     		cmp	r0, #7
 1407 0008 0FD8     		bhi	.L242
 1408              	.L240:
 1409 000a 012C     		cmp	r4, #1
 1410 000c 02D9     		bls	.L241
 1411 000e 0020     		movs	r0, #0
 1412 0010 FFF7FEFF 		bl	CyHalt
 1413              	.L241:
 1414 0014 074B     		ldr	r3, .L243
 1415 0016 6D00     		lsls	r5, r5, #1
 1416 0018 9C46     		mov	ip, r3
 1417 001a A023     		movs	r3, #160
 1418 001c 2C19     		adds	r4, r5, r4
 1419 001e 2401     		lsls	r4, r4, #4
 1420 0020 6444     		add	r4, r4, ip
 1421 0022 A068     		ldr	r0, [r4, #8]
 1422 0024 1B04     		lsls	r3, r3, #16
 1423 0026 1840     		ands	r0, r3
 1424              		@ sp needed
 1425 0028 70BD     		pop	{r4, r5, r6, pc}
ARM GAS  C:\Users\DMA\AppData\Local\Temp\ccp2cm3d.s 			page 26


 1426              	.L242:
 1427 002a 0020     		movs	r0, #0
 1428 002c FFF7FEFF 		bl	CyHalt
 1429 0030 EBE7     		b	.L240
 1430              	.L244:
 1431 0032 C046     		.align	2
 1432              	.L243:
 1433 0034 00181040 		.word	1074796544
 1434              		.size	CyDmaGetAddressIncrement, .-CyDmaGetAddressIncrement
 1435              		.section	.text.CyDmaSetTriggerType,"ax",%progbits
 1436              		.align	2
 1437              		.global	CyDmaSetTriggerType
 1438              		.code	16
 1439              		.thumb_func
 1440              		.type	CyDmaSetTriggerType, %function
 1441              	CyDmaSetTriggerType:
 1442              		@ args = 0, pretend = 0, frame = 0
 1443              		@ frame_needed = 0, uses_anonymous_args = 0
 1444 0000 70B5     		push	{r4, r5, r6, lr}
 1445 0002 0600     		movs	r6, r0
 1446 0004 0C00     		movs	r4, r1
 1447 0006 1500     		movs	r5, r2
 1448 0008 0728     		cmp	r0, #7
 1449 000a 16D8     		bhi	.L252
 1450              	.L246:
 1451 000c 012C     		cmp	r4, #1
 1452 000e 02D9     		bls	.L247
 1453 0010 0020     		movs	r0, #0
 1454 0012 FFF7FEFF 		bl	CyHalt
 1455              	.L247:
 1456 0016 0B4B     		ldr	r3, .L253
 1457 0018 1D42     		tst	r5, r3
 1458 001a 02D0     		beq	.L248
 1459 001c 0020     		movs	r0, #0
 1460 001e FFF7FEFF 		bl	CyHalt
 1461              	.L248:
 1462 0022 094B     		ldr	r3, .L253+4
 1463 0024 7600     		lsls	r6, r6, #1
 1464 0026 9C46     		mov	ip, r3
 1465 0028 3419     		adds	r4, r6, r4
 1466 002a 2401     		lsls	r4, r4, #4
 1467 002c 6444     		add	r4, r4, ip
 1468 002e A268     		ldr	r2, [r4, #8]
 1469 0030 044B     		ldr	r3, .L253
 1470              		@ sp needed
 1471 0032 1340     		ands	r3, r2
 1472 0034 1D43     		orrs	r5, r3
 1473 0036 A560     		str	r5, [r4, #8]
 1474 0038 70BD     		pop	{r4, r5, r6, pc}
 1475              	.L252:
 1476 003a 0020     		movs	r0, #0
 1477 003c FFF7FEFF 		bl	CyHalt
 1478 0040 E4E7     		b	.L246
 1479              	.L254:
 1480 0042 C046     		.align	2
 1481              	.L253:
 1482 0044 FFFFFFFC 		.word	-50331649
ARM GAS  C:\Users\DMA\AppData\Local\Temp\ccp2cm3d.s 			page 27


 1483 0048 00181040 		.word	1074796544
 1484              		.size	CyDmaSetTriggerType, .-CyDmaSetTriggerType
 1485              		.section	.text.CyDmaGetTriggerType,"ax",%progbits
 1486              		.align	2
 1487              		.global	CyDmaGetTriggerType
 1488              		.code	16
 1489              		.thumb_func
 1490              		.type	CyDmaGetTriggerType, %function
 1491              	CyDmaGetTriggerType:
 1492              		@ args = 0, pretend = 0, frame = 0
 1493              		@ frame_needed = 0, uses_anonymous_args = 0
 1494 0000 70B5     		push	{r4, r5, r6, lr}
 1495 0002 0500     		movs	r5, r0
 1496 0004 0C00     		movs	r4, r1
 1497 0006 0728     		cmp	r0, #7
 1498 0008 0FD8     		bhi	.L258
 1499              	.L256:
 1500 000a 012C     		cmp	r4, #1
 1501 000c 02D9     		bls	.L257
 1502 000e 0020     		movs	r0, #0
 1503 0010 FFF7FEFF 		bl	CyHalt
 1504              	.L257:
 1505 0014 074B     		ldr	r3, .L259
 1506 0016 6D00     		lsls	r5, r5, #1
 1507 0018 9C46     		mov	ip, r3
 1508 001a C023     		movs	r3, #192
 1509 001c 2C19     		adds	r4, r5, r4
 1510 001e 2401     		lsls	r4, r4, #4
 1511 0020 6444     		add	r4, r4, ip
 1512 0022 A068     		ldr	r0, [r4, #8]
 1513 0024 9B04     		lsls	r3, r3, #18
 1514 0026 1840     		ands	r0, r3
 1515              		@ sp needed
 1516 0028 70BD     		pop	{r4, r5, r6, pc}
 1517              	.L258:
 1518 002a 0020     		movs	r0, #0
 1519 002c FFF7FEFF 		bl	CyHalt
 1520 0030 EBE7     		b	.L256
 1521              	.L260:
 1522 0032 C046     		.align	2
 1523              	.L259:
 1524 0034 00181040 		.word	1074796544
 1525              		.size	CyDmaGetTriggerType, .-CyDmaGetTriggerType
 1526              		.section	.text.CyDmaSetTransferMode,"ax",%progbits
 1527              		.align	2
 1528              		.global	CyDmaSetTransferMode
 1529              		.code	16
 1530              		.thumb_func
 1531              		.type	CyDmaSetTransferMode, %function
 1532              	CyDmaSetTransferMode:
 1533              		@ args = 0, pretend = 0, frame = 0
 1534              		@ frame_needed = 0, uses_anonymous_args = 0
 1535 0000 70B5     		push	{r4, r5, r6, lr}
 1536 0002 0600     		movs	r6, r0
 1537 0004 0C00     		movs	r4, r1
 1538 0006 1500     		movs	r5, r2
 1539 0008 0728     		cmp	r0, #7
ARM GAS  C:\Users\DMA\AppData\Local\Temp\ccp2cm3d.s 			page 28


 1540 000a 15D8     		bhi	.L268
 1541              	.L262:
 1542 000c 012C     		cmp	r4, #1
 1543 000e 02D9     		bls	.L263
 1544 0010 0020     		movs	r0, #0
 1545 0012 FFF7FEFF 		bl	CyHalt
 1546              	.L263:
 1547 0016 AB00     		lsls	r3, r5, #2
 1548 0018 02D0     		beq	.L264
 1549 001a 0020     		movs	r0, #0
 1550 001c FFF7FEFF 		bl	CyHalt
 1551              	.L264:
 1552 0020 074B     		ldr	r3, .L269
 1553 0022 7600     		lsls	r6, r6, #1
 1554 0024 9C46     		mov	ip, r3
 1555 0026 3419     		adds	r4, r6, r4
 1556 0028 2401     		lsls	r4, r4, #4
 1557 002a 6444     		add	r4, r4, ip
 1558 002c A268     		ldr	r2, [r4, #8]
 1559              		@ sp needed
 1560 002e 9200     		lsls	r2, r2, #2
 1561 0030 9208     		lsrs	r2, r2, #2
 1562 0032 2A43     		orrs	r2, r5
 1563 0034 A260     		str	r2, [r4, #8]
 1564 0036 70BD     		pop	{r4, r5, r6, pc}
 1565              	.L268:
 1566 0038 0020     		movs	r0, #0
 1567 003a FFF7FEFF 		bl	CyHalt
 1568 003e E5E7     		b	.L262
 1569              	.L270:
 1570              		.align	2
 1571              	.L269:
 1572 0040 00181040 		.word	1074796544
 1573              		.size	CyDmaSetTransferMode, .-CyDmaSetTransferMode
 1574              		.section	.text.CyDmaGetTransferMode,"ax",%progbits
 1575              		.align	2
 1576              		.global	CyDmaGetTransferMode
 1577              		.code	16
 1578              		.thumb_func
 1579              		.type	CyDmaGetTransferMode, %function
 1580              	CyDmaGetTransferMode:
 1581              		@ args = 0, pretend = 0, frame = 0
 1582              		@ frame_needed = 0, uses_anonymous_args = 0
 1583 0000 70B5     		push	{r4, r5, r6, lr}
 1584 0002 0500     		movs	r5, r0
 1585 0004 0C00     		movs	r4, r1
 1586 0006 0728     		cmp	r0, #7
 1587 0008 0ED8     		bhi	.L274
 1588              	.L272:
 1589 000a 012C     		cmp	r4, #1
 1590 000c 02D9     		bls	.L273
 1591 000e 0020     		movs	r0, #0
 1592 0010 FFF7FEFF 		bl	CyHalt
 1593              	.L273:
 1594 0014 064B     		ldr	r3, .L275
 1595 0016 6D00     		lsls	r5, r5, #1
 1596 0018 9C46     		mov	ip, r3
ARM GAS  C:\Users\DMA\AppData\Local\Temp\ccp2cm3d.s 			page 29


 1597 001a 2C19     		adds	r4, r5, r4
 1598 001c 2401     		lsls	r4, r4, #4
 1599 001e 6444     		add	r4, r4, ip
 1600 0020 A068     		ldr	r0, [r4, #8]
 1601              		@ sp needed
 1602 0022 800F     		lsrs	r0, r0, #30
 1603 0024 8007     		lsls	r0, r0, #30
 1604 0026 70BD     		pop	{r4, r5, r6, pc}
 1605              	.L274:
 1606 0028 0020     		movs	r0, #0
 1607 002a FFF7FEFF 		bl	CyHalt
 1608 002e ECE7     		b	.L272
 1609              	.L276:
 1610              		.align	2
 1611              	.L275:
 1612 0030 00181040 		.word	1074796544
 1613              		.size	CyDmaGetTransferMode, .-CyDmaGetTransferMode
 1614              		.section	.text.CyDmaSetPreemptable,"ax",%progbits
 1615              		.align	2
 1616              		.global	CyDmaSetPreemptable
 1617              		.code	16
 1618              		.thumb_func
 1619              		.type	CyDmaSetPreemptable, %function
 1620              	CyDmaSetPreemptable:
 1621              		@ args = 0, pretend = 0, frame = 0
 1622              		@ frame_needed = 0, uses_anonymous_args = 0
 1623 0000 70B5     		push	{r4, r5, r6, lr}
 1624 0002 0600     		movs	r6, r0
 1625 0004 0C00     		movs	r4, r1
 1626 0006 1500     		movs	r5, r2
 1627 0008 0728     		cmp	r0, #7
 1628 000a 16D8     		bhi	.L284
 1629              	.L278:
 1630 000c 012C     		cmp	r4, #1
 1631 000e 02D9     		bls	.L279
 1632 0010 0020     		movs	r0, #0
 1633 0012 FFF7FEFF 		bl	CyHalt
 1634              	.L279:
 1635 0016 0B4B     		ldr	r3, .L285
 1636 0018 1D42     		tst	r5, r3
 1637 001a 02D0     		beq	.L280
 1638 001c 0020     		movs	r0, #0
 1639 001e FFF7FEFF 		bl	CyHalt
 1640              	.L280:
 1641 0022 094B     		ldr	r3, .L285+4
 1642 0024 7600     		lsls	r6, r6, #1
 1643 0026 9C46     		mov	ip, r3
 1644 0028 3419     		adds	r4, r6, r4
 1645 002a 2401     		lsls	r4, r4, #4
 1646 002c 6444     		add	r4, r4, ip
 1647 002e A268     		ldr	r2, [r4, #8]
 1648 0030 044B     		ldr	r3, .L285
 1649              		@ sp needed
 1650 0032 1340     		ands	r3, r2
 1651 0034 1D43     		orrs	r5, r3
 1652 0036 A560     		str	r5, [r4, #8]
 1653 0038 70BD     		pop	{r4, r5, r6, pc}
ARM GAS  C:\Users\DMA\AppData\Local\Temp\ccp2cm3d.s 			page 30


 1654              	.L284:
 1655 003a 0020     		movs	r0, #0
 1656 003c FFF7FEFF 		bl	CyHalt
 1657 0040 E4E7     		b	.L278
 1658              	.L286:
 1659 0042 C046     		.align	2
 1660              	.L285:
 1661 0044 FFFFFFEF 		.word	-268435457
 1662 0048 00181040 		.word	1074796544
 1663              		.size	CyDmaSetPreemptable, .-CyDmaSetPreemptable
 1664              		.section	.text.CyDmaGetPreemptable,"ax",%progbits
 1665              		.align	2
 1666              		.global	CyDmaGetPreemptable
 1667              		.code	16
 1668              		.thumb_func
 1669              		.type	CyDmaGetPreemptable, %function
 1670              	CyDmaGetPreemptable:
 1671              		@ args = 0, pretend = 0, frame = 0
 1672              		@ frame_needed = 0, uses_anonymous_args = 0
 1673 0000 70B5     		push	{r4, r5, r6, lr}
 1674 0002 0500     		movs	r5, r0
 1675 0004 0C00     		movs	r4, r1
 1676 0006 0728     		cmp	r0, #7
 1677 0008 0FD8     		bhi	.L290
 1678              	.L288:
 1679 000a 012C     		cmp	r4, #1
 1680 000c 02D9     		bls	.L289
 1681 000e 0020     		movs	r0, #0
 1682 0010 FFF7FEFF 		bl	CyHalt
 1683              	.L289:
 1684 0014 074B     		ldr	r3, .L291
 1685 0016 6D00     		lsls	r5, r5, #1
 1686 0018 9C46     		mov	ip, r3
 1687 001a 8023     		movs	r3, #128
 1688 001c 2C19     		adds	r4, r5, r4
 1689 001e 2401     		lsls	r4, r4, #4
 1690 0020 6444     		add	r4, r4, ip
 1691 0022 A068     		ldr	r0, [r4, #8]
 1692 0024 5B05     		lsls	r3, r3, #21
 1693 0026 1840     		ands	r0, r3
 1694              		@ sp needed
 1695 0028 70BD     		pop	{r4, r5, r6, pc}
 1696              	.L290:
 1697 002a 0020     		movs	r0, #0
 1698 002c FFF7FEFF 		bl	CyHalt
 1699 0030 EBE7     		b	.L288
 1700              	.L292:
 1701 0032 C046     		.align	2
 1702              	.L291:
 1703 0034 00181040 		.word	1074796544
 1704              		.size	CyDmaGetPreemptable, .-CyDmaGetPreemptable
 1705              		.section	.text.CyDmaSetPostCompletionActions,"ax",%progbits
 1706              		.align	2
 1707              		.global	CyDmaSetPostCompletionActions
 1708              		.code	16
 1709              		.thumb_func
 1710              		.type	CyDmaSetPostCompletionActions, %function
ARM GAS  C:\Users\DMA\AppData\Local\Temp\ccp2cm3d.s 			page 31


 1711              	CyDmaSetPostCompletionActions:
 1712              		@ args = 0, pretend = 0, frame = 0
 1713              		@ frame_needed = 0, uses_anonymous_args = 0
 1714 0000 70B5     		push	{r4, r5, r6, lr}
 1715 0002 0600     		movs	r6, r0
 1716 0004 0C00     		movs	r4, r1
 1717 0006 1500     		movs	r5, r2
 1718 0008 0728     		cmp	r0, #7
 1719 000a 16D8     		bhi	.L300
 1720              	.L294:
 1721 000c 012C     		cmp	r4, #1
 1722 000e 02D9     		bls	.L295
 1723 0010 0020     		movs	r0, #0
 1724 0012 FFF7FEFF 		bl	CyHalt
 1725              	.L295:
 1726 0016 0B4B     		ldr	r3, .L301
 1727 0018 1D42     		tst	r5, r3
 1728 001a 02D0     		beq	.L296
 1729 001c 0020     		movs	r0, #0
 1730 001e FFF7FEFF 		bl	CyHalt
 1731              	.L296:
 1732 0022 094B     		ldr	r3, .L301+4
 1733 0024 7600     		lsls	r6, r6, #1
 1734 0026 9C46     		mov	ip, r3
 1735 0028 3419     		adds	r4, r6, r4
 1736 002a 2401     		lsls	r4, r4, #4
 1737 002c 6444     		add	r4, r4, ip
 1738 002e A268     		ldr	r2, [r4, #8]
 1739 0030 044B     		ldr	r3, .L301
 1740              		@ sp needed
 1741 0032 1340     		ands	r3, r2
 1742 0034 1D43     		orrs	r5, r3
 1743 0036 A560     		str	r5, [r4, #8]
 1744 0038 70BD     		pop	{r4, r5, r6, pc}
 1745              	.L300:
 1746 003a 0020     		movs	r0, #0
 1747 003c FFF7FEFF 		bl	CyHalt
 1748 0040 E4E7     		b	.L294
 1749              	.L302:
 1750 0042 C046     		.align	2
 1751              	.L301:
 1752 0044 FFFFFFD3 		.word	-738197505
 1753 0048 00181040 		.word	1074796544
 1754              		.size	CyDmaSetPostCompletionActions, .-CyDmaSetPostCompletionActions
 1755              		.section	.text.CyDmaGetPostCompletionActions,"ax",%progbits
 1756              		.align	2
 1757              		.global	CyDmaGetPostCompletionActions
 1758              		.code	16
 1759              		.thumb_func
 1760              		.type	CyDmaGetPostCompletionActions, %function
 1761              	CyDmaGetPostCompletionActions:
 1762              		@ args = 0, pretend = 0, frame = 0
 1763              		@ frame_needed = 0, uses_anonymous_args = 0
 1764 0000 70B5     		push	{r4, r5, r6, lr}
 1765 0002 0500     		movs	r5, r0
 1766 0004 0C00     		movs	r4, r1
 1767 0006 0728     		cmp	r0, #7
ARM GAS  C:\Users\DMA\AppData\Local\Temp\ccp2cm3d.s 			page 32


 1768 0008 0FD8     		bhi	.L306
 1769              	.L304:
 1770 000a 012C     		cmp	r4, #1
 1771 000c 02D9     		bls	.L305
 1772 000e 0020     		movs	r0, #0
 1773 0010 FFF7FEFF 		bl	CyHalt
 1774              	.L305:
 1775 0014 074B     		ldr	r3, .L307
 1776 0016 6D00     		lsls	r5, r5, #1
 1777 0018 9C46     		mov	ip, r3
 1778 001a B023     		movs	r3, #176
 1779 001c 2C19     		adds	r4, r5, r4
 1780 001e 2401     		lsls	r4, r4, #4
 1781 0020 6444     		add	r4, r4, ip
 1782 0022 A068     		ldr	r0, [r4, #8]
 1783 0024 9B05     		lsls	r3, r3, #22
 1784 0026 1840     		ands	r0, r3
 1785              		@ sp needed
 1786 0028 70BD     		pop	{r4, r5, r6, pc}
 1787              	.L306:
 1788 002a 0020     		movs	r0, #0
 1789 002c FFF7FEFF 		bl	CyHalt
 1790 0030 EBE7     		b	.L304
 1791              	.L308:
 1792 0032 C046     		.align	2
 1793              	.L307:
 1794 0034 00181040 		.word	1074796544
 1795              		.size	CyDmaGetPostCompletionActions, .-CyDmaGetPostCompletionActions
 1796              		.data
 1797              		.align	2
 1798              		.set	.LANCHOR0,. + 0
 1799              		.type	CyDmaInterruptCallback, %object
 1800              		.size	CyDmaInterruptCallback, 32
 1801              	CyDmaInterruptCallback:
 1802 0000 00000000 		.word	CyDmaDefaultInterruptCallback
 1803 0004 00000000 		.word	CyDmaDefaultInterruptCallback
 1804 0008 00000000 		.word	CyDmaDefaultInterruptCallback
 1805 000c 00000000 		.word	CyDmaDefaultInterruptCallback
 1806 0010 00000000 		.word	CyDmaDefaultInterruptCallback
 1807 0014 00000000 		.word	CyDmaDefaultInterruptCallback
 1808 0018 00000000 		.word	CyDmaDefaultInterruptCallback
 1809 001c 00000000 		.word	CyDmaDefaultInterruptCallback
 1810              		.bss
 1811              		.align	2
 1812              		.set	.LANCHOR1,. + 0
 1813              		.type	initIntrVector.5011, %object
 1814              		.size	initIntrVector.5011, 1
 1815              	initIntrVector.5011:
 1816 0000 00       		.space	1
 1817 0001 000000   		.space	3
 1818              		.type	CyDmaChannelUsedMask, %object
 1819              		.size	CyDmaChannelUsedMask, 4
 1820              	CyDmaChannelUsedMask:
 1821 0004 00000000 		.space	4
 1822              		.ident	"GCC: (GNU Tools for ARM Embedded Processors) 5.4.1 20160609 (release) [ARM/embedded-5-bran
