ARM GAS  C:\Users\DMA\AppData\Local\Temp\ccfCcekh.s 			page 1


   1              		.syntax unified
   2              		.cpu cortex-m0
   3              		.fpu softvfp
   4              		.eabi_attribute 20, 1
   5              		.eabi_attribute 21, 1
   6              		.eabi_attribute 23, 3
   7              		.eabi_attribute 24, 1
   8              		.eabi_attribute 25, 1
   9              		.eabi_attribute 26, 1
  10              		.eabi_attribute 30, 2
  11              		.eabi_attribute 34, 0
  12              		.eabi_attribute 18, 4
  13              		.thumb
  14              		.syntax unified
  15              		.file	"cyfitter_cfg.c"
  16              		.section	.psocinit,"ax",%progbits
  17              		.align	2
  18              		.global	cyfitter_cfg
  19              		.code	16
  20              		.thumb_func
  21              		.type	cyfitter_cfg, %function
  22              	cyfitter_cfg:
  23              		@ args = 0, pretend = 0, frame = 0
  24              		@ frame_needed = 0, uses_anonymous_args = 0
  25 0000 F8B5     		push	{r3, r4, r5, r6, r7, lr}
  26              		.syntax divided
  27              	@ 271 "Generated_Source\PSoC4\cyfitter_cfg.c" 1
  28 0002 72B6     		CPSID   i
  29              	@ 0 "" 2
  30              		.thumb
  31              		.syntax unified
  32 0004 8026     		movs	r6, #128
  33 0006 0024     		movs	r4, #0
  34 0008 4A4D     		ldr	r5, .L2
  35 000a F600     		lsls	r6, r6, #3
  36 000c 2C60     		str	r4, [r5]
  37 000e 3200     		movs	r2, r6
  38 0010 0021     		movs	r1, #0
  39 0012 4948     		ldr	r0, .L2+4
  40 0014 FFF7FEFF 		bl	memset
  41 0018 3200     		movs	r2, r6
  42 001a 0021     		movs	r1, #0
  43 001c 4748     		ldr	r0, .L2+8
  44 001e FFF7FEFF 		bl	memset
  45 0022 EE22     		movs	r2, #238
  46 0024 464B     		ldr	r3, .L2+12
  47 0026 1206     		lsls	r2, r2, #24
  48 0028 1A60     		str	r2, [r3]
  49 002a 9923     		movs	r3, #153
  50 002c EE21     		movs	r1, #238
  51 002e 454A     		ldr	r2, .L2+16
  52 0030 1B04     		lsls	r3, r3, #16
  53 0032 1360     		str	r3, [r2]
  54 0034 444A     		ldr	r2, .L2+20
  55 0036 0904     		lsls	r1, r1, #16
  56 0038 1160     		str	r1, [r2]
  57 003a 444A     		ldr	r2, .L2+24
ARM GAS  C:\Users\DMA\AppData\Local\Temp\ccfCcekh.s 			page 2


  58 003c 8027     		movs	r7, #128
  59 003e 1360     		str	r3, [r2]
  60 0040 434A     		ldr	r2, .L2+28
  61 0042 444E     		ldr	r6, .L2+32
  62 0044 1360     		str	r3, [r2]
  63 0046 444A     		ldr	r2, .L2+36
  64 0048 FF05     		lsls	r7, r7, #23
  65 004a 1360     		str	r3, [r2]
  66 004c 434A     		ldr	r2, .L2+40
  67              		@ sp needed
  68 004e 1360     		str	r3, [r2]
  69 0050 0623     		movs	r3, #6
  70 0052 434A     		ldr	r2, .L2+44
  71 0054 1178     		ldrb	r1, [r2]
  72 0056 0B43     		orrs	r3, r1
  73 0058 1370     		strb	r3, [r2]
  74 005a D822     		movs	r2, #216
  75 005c 414B     		ldr	r3, .L2+48
  76 005e 1204     		lsls	r2, r2, #16
  77 0060 1A60     		str	r2, [r3]
  78 0062 2023     		movs	r3, #32
  79 0064 C421     		movs	r1, #196
  80 0066 404A     		ldr	r2, .L2+52
  81 0068 8902     		lsls	r1, r1, #10
  82 006a 1360     		str	r3, [r2]
  83 006c 3F4A     		ldr	r2, .L2+56
  84 006e 1160     		str	r1, [r2]
  85 0070 3F4A     		ldr	r2, .L2+60
  86 0072 1360     		str	r3, [r2]
  87 0074 C022     		movs	r2, #192
  88 0076 3F4B     		ldr	r3, .L2+64
  89 0078 1A60     		str	r2, [r3]
  90 007a B022     		movs	r2, #176
  91 007c 3E4B     		ldr	r3, .L2+68
  92 007e D203     		lsls	r2, r2, #15
  93 0080 1A60     		str	r2, [r3]
  94 0082 8022     		movs	r2, #128
  95 0084 3D4B     		ldr	r3, .L2+72
  96 0086 1202     		lsls	r2, r2, #8
  97 0088 1A60     		str	r2, [r3]
  98 008a F022     		movs	r2, #240
  99 008c 3C4B     		ldr	r3, .L2+76
 100 008e 1A60     		str	r2, [r3]
 101 0090 3C4A     		ldr	r2, .L2+80
 102 0092 3D4B     		ldr	r3, .L2+84
 103 0094 1A60     		str	r2, [r3]
 104 0096 1222     		movs	r2, #18
 105 0098 3C4B     		ldr	r3, .L2+88
 106 009a 1A60     		str	r2, [r3]
 107 009c FFF7FEFF 		bl	CySysClkWcoStart
 108 00a0 3B48     		ldr	r0, .L2+92
 109 00a2 FFF7FEFF 		bl	CyDelayCycles
 110 00a6 0120     		movs	r0, #1
 111 00a8 FFF7FEFF 		bl	CySysClkWcoSetPowerMode
 112 00ac 3020     		movs	r0, #48
 113 00ae FFF7FEFF 		bl	CySysClkWriteImoFreq
 114 00b2 0223     		movs	r3, #2
ARM GAS  C:\Users\DMA\AppData\Local\Temp\ccfCcekh.s 			page 3


 115 00b4 374A     		ldr	r2, .L2+96
 116 00b6 3760     		str	r7, [r6]
 117 00b8 1168     		ldr	r1, [r2]
 118 00ba FA20     		movs	r0, #250
 119 00bc 0B43     		orrs	r3, r1
 120 00be 1360     		str	r3, [r2]
 121 00c0 354A     		ldr	r2, .L2+100
 122 00c2 364B     		ldr	r3, .L2+104
 123 00c4 C000     		lsls	r0, r0, #3
 124 00c6 1A60     		str	r2, [r3]
 125 00c8 0822     		movs	r2, #8
 126 00ca 354B     		ldr	r3, .L2+108
 127 00cc 1C60     		str	r4, [r3]
 128 00ce 2B68     		ldr	r3, [r5]
 129 00d0 9343     		bics	r3, r2
 130 00d2 2B60     		str	r3, [r5]
 131 00d4 FFF7FEFF 		bl	CySysClkEcoStart
 132 00d8 3248     		ldr	r0, .L2+112
 133 00da FFF7FEFF 		bl	CyDelayUs
 134 00de A022     		movs	r2, #160
 135 00e0 C821     		movs	r1, #200
 136 00e2 314B     		ldr	r3, .L2+116
 137 00e4 D200     		lsls	r2, r2, #3
 138 00e6 1A60     		str	r2, [r3]
 139 00e8 304B     		ldr	r3, .L2+120
 140 00ea 314A     		ldr	r2, .L2+124
 141 00ec 4901     		lsls	r1, r1, #5
 142 00ee 1A60     		str	r2, [r3]
 143 00f0 304A     		ldr	r2, .L2+128
 144 00f2 0820     		movs	r0, #8
 145 00f4 1160     		str	r1, [r2]
 146 00f6 304A     		ldr	r2, .L2+132
 147 00f8 3049     		ldr	r1, .L2+136
 148 00fa 1A60     		str	r2, [r3]
 149 00fc 8022     		movs	r2, #128
 150 00fe 304B     		ldr	r3, .L2+140
 151 0100 1206     		lsls	r2, r2, #24
 152 0102 1A60     		str	r2, [r3]
 153 0104 8022     		movs	r2, #128
 154 0106 2F4B     		ldr	r3, .L2+144
 155 0108 1203     		lsls	r2, r2, #12
 156 010a 1A60     		str	r2, [r3]
 157 010c 4022     		movs	r2, #64
 158 010e 2E4B     		ldr	r3, .L2+148
 159 0110 1A60     		str	r2, [r3]
 160 0112 2E4B     		ldr	r3, .L2+152
 161 0114 0132     		adds	r2, r2, #1
 162 0116 1A60     		str	r2, [r3]
 163 0118 FFF7FEFF 		bl	CyIntSetVector
 164 011c 0820     		movs	r0, #8
 165 011e FFF7FEFF 		bl	CyIntEnable
 166 0122 0323     		movs	r3, #3
 167 0124 2A4A     		ldr	r2, .L2+156
 168 0126 3760     		str	r7, [r6]
 169 0128 1360     		str	r3, [r2]
 170 012a 2A4A     		ldr	r2, .L2+160
 171 012c 1360     		str	r3, [r2]
ARM GAS  C:\Users\DMA\AppData\Local\Temp\ccfCcekh.s 			page 4


 172 012e 2A4B     		ldr	r3, .L2+164
 173 0130 1C60     		str	r4, [r3]
 174 0132 F8BD     		pop	{r3, r4, r5, r6, r7, pc}
 175              	.L3:
 176              		.align	2
 177              	.L2:
 178 0134 6CF02E40 		.word	1076818028
 179 0138 00300F40 		.word	1074737152
 180 013c 00400F40 		.word	1074741248
 181 0140 00000240 		.word	1073872896
 182 0144 00010240 		.word	1073873152
 183 0148 00030240 		.word	1073873664
 184 014c 00500F40 		.word	1074745344
 185 0150 10500F40 		.word	1074745360
 186 0154 0C020B40 		.word	1074463244
 187 0158 20500F40 		.word	1074745376
 188 015c 30500F40 		.word	1074745392
 189 0160 00700F40 		.word	1074753536
 190 0164 08000440 		.word	1074003976
 191 0168 00010440 		.word	1074004224
 192 016c 08010440 		.word	1074004232
 193 0170 18010440 		.word	1074004248
 194 0174 00020440 		.word	1074004480
 195 0178 08020440 		.word	1074004488
 196 017c 0C020440 		.word	1074004492
 197 0180 00030440 		.word	1074004736
 198 0184 0040DA00 		.word	14303232
 199 0188 08030440 		.word	1074004744
 200 018c 30001040 		.word	1074790448
 201 0190 001BB700 		.word	12000000
 202 0194 78002E40 		.word	1076756600
 203 0198 6A2D0000 		.word	11626
 204 019c 7C002E40 		.word	1076756604
 205 01a0 64F02E40 		.word	1076818020
 206 01a4 DC050000 		.word	1500
 207 01a8 00030140 		.word	1073808128
 208 01ac 00000140 		.word	1073807360
 209 01b0 40FF0080 		.word	-2147418304
 210 01b4 04030140 		.word	1073808132
 211 01b8 41FF0080 		.word	-2147418303
 212 01bc 00000000 		.word	CySysWdtIsr
 213 01c0 08010B40 		.word	1074462984
 214 01c4 00010B40 		.word	1074462976
 215 01c8 08010140 		.word	1073807624
 216 01cc 04010140 		.word	1073807620
 217 01d0 30003040 		.word	1076887600
 218 01d4 30003140 		.word	1076953136
 219 01d8 000E3F40 		.word	1077874176
 220              		.size	cyfitter_cfg, .-cyfitter_cfg
 221              		.ident	"GCC: (GNU Tools for ARM Embedded Processors) 5.4.1 20160609 (release) [ARM/embedded-5-bran
