ARM GAS  C:\Users\DMA\AppData\Local\Temp\cckthxUn.s 			page 1


   1              		.syntax unified
   2              		.cpu cortex-m0
   3              		.fpu softvfp
   4              		.eabi_attribute 20, 1
   5              		.eabi_attribute 21, 1
   6              		.eabi_attribute 23, 3
   7              		.eabi_attribute 24, 1
   8              		.eabi_attribute 25, 1
   9              		.eabi_attribute 26, 1
  10              		.eabi_attribute 30, 2
  11              		.eabi_attribute 34, 0
  12              		.eabi_attribute 18, 4
  13              		.thumb
  14              		.syntax unified
  15              		.file	"CyLFClk.c"
  16              		.section	.text.CySysClkLfclkPosedgeCatch,"ax",%progbits
  17              		.align	2
  18              		.code	16
  19              		.thumb_func
  20              		.type	CySysClkLfclkPosedgeCatch, %function
  21              	CySysClkLfclkPosedgeCatch:
  22              		@ args = 0, pretend = 0, frame = 0
  23              		@ frame_needed = 0, uses_anonymous_args = 0
  24 0000 F8B5     		push	{r3, r4, r5, r6, r7, lr}
  25 0002 314B     		ldr	r3, .L37
  26 0004 0122     		movs	r2, #1
  27 0006 1968     		ldr	r1, [r3]
  28 0008 8907     		lsls	r1, r1, #30
  29 000a 22D5     		bpl	.L2
  30 000c 0023     		movs	r3, #0
  31 000e 2F4D     		ldr	r5, .L37+4
  32 0010 2B60     		str	r3, [r5]
  33              	.L3:
  34 0012 2F4B     		ldr	r3, .L37+8
  35 0014 1C68     		ldr	r4, [r3]
  36 0016 0023     		movs	r3, #0
  37 0018 2404     		lsls	r4, r4, #16
  38 001a 240C     		lsrs	r4, r4, #16
  39              	.L11:
  40 001c 2C4E     		ldr	r6, .L37+8
  41 001e 2D4F     		ldr	r7, .L37+12
  42 0020 07E0     		b	.L18
  43              	.L35:
  44 0022 002B     		cmp	r3, #0
  45 0024 11D0     		beq	.L14
  46 0026 022B     		cmp	r3, #2
  47 0028 0AD1     		bne	.L34
  48 002a 3B68     		ldr	r3, [r7]
  49              	.L16:
  50 002c 9C42     		cmp	r4, r3
  51 002e 06D1     		bne	.L1
  52              	.L36:
  53 0030 2B68     		ldr	r3, [r5]
  54              	.L18:
  55 0032 012B     		cmp	r3, #1
  56 0034 F5D1     		bne	.L35
  57 0036 3368     		ldr	r3, [r6]
ARM GAS  C:\Users\DMA\AppData\Local\Temp\cckthxUn.s 			page 2


  58 0038 1B0C     		lsrs	r3, r3, #16
  59 003a 9C42     		cmp	r4, r3
  60 003c F8D0     		beq	.L36
  61              	.L1:
  62              		@ sp needed
  63 003e F8BD     		pop	{r3, r4, r5, r6, r7, pc}
  64              	.L34:
  65 0040 0020     		movs	r0, #0
  66 0042 FFF7FEFF 		bl	CyHalt
  67 0046 0023     		movs	r3, #0
  68 0048 F0E7     		b	.L16
  69              	.L14:
  70 004a 3368     		ldr	r3, [r6]
  71 004c 1B04     		lsls	r3, r3, #16
  72 004e 1B0C     		lsrs	r3, r3, #16
  73 0050 ECE7     		b	.L16
  74              	.L2:
  75 0052 1968     		ldr	r1, [r3]
  76 0054 490A     		lsrs	r1, r1, #9
  77 0056 0A42     		tst	r2, r1
  78 0058 06D0     		beq	.L4
  79 005a 1C4D     		ldr	r5, .L37+4
  80 005c 2A60     		str	r2, [r5]
  81              	.L5:
  82 005e 1C4B     		ldr	r3, .L37+8
  83 0060 1C68     		ldr	r4, [r3]
  84 0062 0123     		movs	r3, #1
  85 0064 240C     		lsrs	r4, r4, #16
  86 0066 D9E7     		b	.L11
  87              	.L4:
  88 0068 1968     		ldr	r1, [r3]
  89 006a 184D     		ldr	r5, .L37+4
  90 006c 490C     		lsrs	r1, r1, #17
  91 006e 1140     		ands	r1, r2
  92 0070 05D0     		beq	.L6
  93 0072 0223     		movs	r3, #2
  94 0074 2B60     		str	r3, [r5]
  95              	.L7:
  96 0076 174B     		ldr	r3, .L37+12
  97 0078 1C68     		ldr	r4, [r3]
  98 007a 0223     		movs	r3, #2
  99 007c CEE7     		b	.L11
 100              	.L6:
 101 007e 0324     		movs	r4, #3
 102 0080 1548     		ldr	r0, .L37+16
 103 0082 6A60     		str	r2, [r5, #4]
 104 0084 2960     		str	r1, [r5]
 105 0086 0168     		ldr	r1, [r0]
 106 0088 2140     		ands	r1, r4
 107 008a A960     		str	r1, [r5, #8]
 108 008c 1B68     		ldr	r3, [r3]
 109 008e 5B08     		lsrs	r3, r3, #1
 110 0090 1A42     		tst	r2, r3
 111 0092 02D1     		bne	.L8
 112 0094 0368     		ldr	r3, [r0]
 113 0096 A343     		bics	r3, r4
 114 0098 0360     		str	r3, [r0]
ARM GAS  C:\Users\DMA\AppData\Local\Temp\cckthxUn.s 			page 3


 115              	.L8:
 116 009a 0123     		movs	r3, #1
 117 009c 0A4A     		ldr	r2, .L37
 118 009e 1168     		ldr	r1, [r2]
 119 00a0 0B43     		orrs	r3, r1
 120 00a2 0221     		movs	r1, #2
 121 00a4 1360     		str	r3, [r2]
 122              	.L9:
 123 00a6 1368     		ldr	r3, [r2]
 124 00a8 1942     		tst	r1, r3
 125 00aa FCD0     		beq	.L9
 126 00ac 2B68     		ldr	r3, [r5]
 127 00ae 012B     		cmp	r3, #1
 128 00b0 D5D0     		beq	.L5
 129 00b2 002B     		cmp	r3, #0
 130 00b4 ADD0     		beq	.L3
 131 00b6 022B     		cmp	r3, #2
 132 00b8 DDD0     		beq	.L7
 133 00ba 0020     		movs	r0, #0
 134 00bc FFF7FEFF 		bl	CyHalt
 135 00c0 0024     		movs	r4, #0
 136 00c2 2B68     		ldr	r3, [r5]
 137 00c4 AAE7     		b	.L11
 138              	.L38:
 139 00c6 C046     		.align	2
 140              	.L37:
 141 00c8 10020B40 		.word	1074463248
 142 00cc 00000000 		.word	.LANCHOR0
 143 00d0 00020B40 		.word	1074463232
 144 00d4 04020B40 		.word	1074463236
 145 00d8 0C020B40 		.word	1074463244
 146              		.size	CySysClkLfclkPosedgeCatch, .-CySysClkLfclkPosedgeCatch
 147              		.section	.text.CySysClkIloStart,"ax",%progbits
 148              		.align	2
 149              		.global	CySysClkIloStart
 150              		.code	16
 151              		.thumb_func
 152              		.type	CySysClkIloStart, %function
 153              	CySysClkIloStart:
 154              		@ args = 0, pretend = 0, frame = 0
 155              		@ frame_needed = 0, uses_anonymous_args = 0
 156              		@ link register save eliminated.
 157 0000 8021     		movs	r1, #128
 158 0002 034A     		ldr	r2, .L40
 159 0004 0906     		lsls	r1, r1, #24
 160 0006 1368     		ldr	r3, [r2]
 161              		@ sp needed
 162 0008 0B43     		orrs	r3, r1
 163 000a 1360     		str	r3, [r2]
 164 000c 7047     		bx	lr
 165              	.L41:
 166 000e C046     		.align	2
 167              	.L40:
 168 0010 04010B40 		.word	1074462980
 169              		.size	CySysClkIloStart, .-CySysClkIloStart
 170              		.section	.text.CySysClkIloStop,"ax",%progbits
 171              		.align	2
ARM GAS  C:\Users\DMA\AppData\Local\Temp\cckthxUn.s 			page 4


 172              		.global	CySysClkIloStop
 173              		.code	16
 174              		.thumb_func
 175              		.type	CySysClkIloStop, %function
 176              	CySysClkIloStop:
 177              		@ args = 0, pretend = 0, frame = 0
 178              		@ frame_needed = 0, uses_anonymous_args = 0
 179 0000 1C4B     		ldr	r3, .L59
 180 0002 70B5     		push	{r4, r5, r6, lr}
 181 0004 1A68     		ldr	r2, [r3]
 182 0006 C023     		movs	r3, #192
 183 0008 1B02     		lsls	r3, r3, #8
 184 000a 1A42     		tst	r2, r3
 185 000c 03D1     		bne	.L42
 186 000e 1A4C     		ldr	r4, .L59+4
 187 0010 2368     		ldr	r3, [r4]
 188 0012 002B     		cmp	r3, #0
 189 0014 00DB     		blt	.L56
 190              	.L42:
 191              		@ sp needed
 192 0016 70BD     		pop	{r4, r5, r6, pc}
 193              	.L56:
 194 0018 184D     		ldr	r5, .L59+8
 195 001a 2B68     		ldr	r3, [r5]
 196 001c 9B0F     		lsrs	r3, r3, #30
 197 001e 04D0     		beq	.L57
 198 0020 2368     		ldr	r3, [r4]
 199 0022 5B00     		lsls	r3, r3, #1
 200 0024 5B08     		lsrs	r3, r3, #1
 201 0026 2360     		str	r3, [r4]
 202 0028 F5E7     		b	.L42
 203              	.L57:
 204 002a FFF7FEFF 		bl	CyEnterCriticalSection
 205 002e 0600     		movs	r6, r0
 206 0030 FFF7FEFF 		bl	CySysClkLfclkPosedgeCatch
 207 0034 2368     		ldr	r3, [r4]
 208 0036 5B00     		lsls	r3, r3, #1
 209 0038 5B08     		lsrs	r3, r3, #1
 210 003a 2360     		str	r3, [r4]
 211 003c 104B     		ldr	r3, .L59+12
 212 003e 5A68     		ldr	r2, [r3, #4]
 213 0040 002A     		cmp	r2, #0
 214 0042 03D1     		bne	.L58
 215              	.L45:
 216 0044 3000     		movs	r0, r6
 217 0046 FFF7FEFF 		bl	CyExitCriticalSection
 218 004a E4E7     		b	.L42
 219              	.L58:
 220 004c 0120     		movs	r0, #1
 221 004e 0D4A     		ldr	r2, .L59+16
 222 0050 1168     		ldr	r1, [r2]
 223 0052 8143     		bics	r1, r0
 224 0054 1160     		str	r1, [r2]
 225 0056 1268     		ldr	r2, [r2]
 226 0058 5208     		lsrs	r2, r2, #1
 227 005a 1042     		tst	r0, r2
 228 005c 06D1     		bne	.L46
ARM GAS  C:\Users\DMA\AppData\Local\Temp\cckthxUn.s 			page 5


 229 005e 0322     		movs	r2, #3
 230 0060 2968     		ldr	r1, [r5]
 231 0062 9868     		ldr	r0, [r3, #8]
 232 0064 9143     		bics	r1, r2
 233 0066 0240     		ands	r2, r0
 234 0068 0A43     		orrs	r2, r1
 235 006a 2A60     		str	r2, [r5]
 236              	.L46:
 237 006c 0022     		movs	r2, #0
 238 006e 5A60     		str	r2, [r3, #4]
 239 0070 E8E7     		b	.L45
 240              	.L60:
 241 0072 C046     		.align	2
 242              	.L59:
 243 0074 00010B40 		.word	1074462976
 244 0078 04010B40 		.word	1074462980
 245 007c 0C020B40 		.word	1074463244
 246 0080 00000000 		.word	.LANCHOR0
 247 0084 10020B40 		.word	1074463248
 248              		.size	CySysClkIloStop, .-CySysClkIloStop
 249              		.section	.text.CySysClkIloStartMeasurement,"ax",%progbits
 250              		.align	2
 251              		.global	CySysClkIloStartMeasurement
 252              		.code	16
 253              		.thumb_func
 254              		.type	CySysClkIloStartMeasurement, %function
 255              	CySysClkIloStartMeasurement:
 256              		@ args = 0, pretend = 0, frame = 0
 257              		@ frame_needed = 0, uses_anonymous_args = 0
 258              		@ link register save eliminated.
 259 0000 0D4B     		ldr	r3, .L63
 260 0002 1A7B     		ldrb	r2, [r3, #12]
 261 0004 002A     		cmp	r2, #0
 262 0006 07D1     		bne	.L62
 263 0008 0F21     		movs	r1, #15
 264 000a 0C4A     		ldr	r2, .L63+4
 265 000c 1268     		ldr	r2, [r2]
 266 000e 0A40     		ands	r2, r1
 267 0010 0B49     		ldr	r1, .L63+8
 268 0012 0A80     		strh	r2, [r1]
 269 0014 0122     		movs	r2, #1
 270 0016 1A73     		strb	r2, [r3, #12]
 271              	.L62:
 272 0018 0A4A     		ldr	r2, .L63+12
 273 001a 0B4B     		ldr	r3, .L63+16
 274 001c 1168     		ldr	r1, [r2]
 275              		@ sp needed
 276 001e 0B40     		ands	r3, r1
 277 0020 8021     		movs	r1, #128
 278 0022 4900     		lsls	r1, r1, #1
 279 0024 0B43     		orrs	r3, r1
 280 0026 1360     		str	r3, [r2]
 281 0028 084A     		ldr	r2, .L63+20
 282 002a 094B     		ldr	r3, .L63+24
 283 002c 1168     		ldr	r1, [r2]
 284 002e 0B40     		ands	r3, r1
 285 0030 0849     		ldr	r1, .L63+28
ARM GAS  C:\Users\DMA\AppData\Local\Temp\cckthxUn.s 			page 6


 286 0032 0B43     		orrs	r3, r1
 287 0034 1360     		str	r3, [r2]
 288 0036 7047     		bx	lr
 289              	.L64:
 290              		.align	2
 291              	.L63:
 292 0038 00000000 		.word	.LANCHOR0
 293 003c 24FF0B40 		.word	1074528036
 294 0040 00000000 		.word	.LANCHOR1
 295 0044 10010B40 		.word	1074462992
 296 0048 FFF0FFFF 		.word	-3841
 297 004c 08000340 		.word	1073938440
 298 0050 C0C0FFFF 		.word	-16192
 299 0054 0A0B0000 		.word	2826
 300              		.size	CySysClkIloStartMeasurement, .-CySysClkIloStartMeasurement
 301              		.section	.text.CySysClkIloStopMeasurement,"ax",%progbits
 302              		.align	2
 303              		.global	CySysClkIloStopMeasurement
 304              		.code	16
 305              		.thumb_func
 306              		.type	CySysClkIloStopMeasurement, %function
 307              	CySysClkIloStopMeasurement:
 308              		@ args = 0, pretend = 0, frame = 0
 309              		@ frame_needed = 0, uses_anonymous_args = 0
 310              		@ link register save eliminated.
 311 0000 024A     		ldr	r2, .L66
 312 0002 034B     		ldr	r3, .L66+4
 313 0004 1168     		ldr	r1, [r2]
 314              		@ sp needed
 315 0006 0B40     		ands	r3, r1
 316 0008 1360     		str	r3, [r2]
 317 000a 7047     		bx	lr
 318              	.L67:
 319              		.align	2
 320              	.L66:
 321 000c 10010B40 		.word	1074462992
 322 0010 FFF0FFFF 		.word	-3841
 323              		.size	CySysClkIloStopMeasurement, .-CySysClkIloStopMeasurement
 324              		.global	__aeabi_uidiv
 325              		.section	.text.CySysClkIloCompensate,"ax",%progbits
 326              		.align	2
 327              		.global	CySysClkIloCompensate
 328              		.code	16
 329              		.thumb_func
 330              		.type	CySysClkIloCompensate, %function
 331              	CySysClkIloCompensate:
 332              		@ args = 0, pretend = 0, frame = 0
 333              		@ frame_needed = 0, uses_anonymous_args = 0
 334 0000 2F4B     		ldr	r3, .L82
 335 0002 F0B5     		push	{r4, r5, r6, r7, lr}
 336 0004 1A68     		ldr	r2, [r3]
 337 0006 2F4B     		ldr	r3, .L82+4
 338 0008 4746     		mov	r7, r8
 339 000a 1340     		ands	r3, r2
 340 000c 8022     		movs	r2, #128
 341 000e 0400     		movs	r4, r0
 342 0010 80B4     		push	{r7}
ARM GAS  C:\Users\DMA\AppData\Local\Temp\cckthxUn.s 			page 7


 343 0012 0D00     		movs	r5, r1
 344 0014 5200     		lsls	r2, r2, #1
 345 0016 1120     		movs	r0, #17
 346 0018 9342     		cmp	r3, r2
 347 001a 02D0     		beq	.L80
 348              	.L69:
 349              		@ sp needed
 350 001c 04BC     		pop	{r2}
 351 001e 9046     		mov	r8, r2
 352 0020 F0BD     		pop	{r4, r5, r6, r7, pc}
 353              	.L80:
 354 0022 294B     		ldr	r3, .L82+8
 355 0024 1A68     		ldr	r2, [r3]
 356 0026 294B     		ldr	r3, .L82+12
 357 0028 9A42     		cmp	r2, r3
 358 002a F7D1     		bne	.L69
 359 002c 2300     		movs	r3, r4
 360 002e 284A     		ldr	r2, .L82+16
 361 0030 643B     		subs	r3, r3, #100
 362 0032 9342     		cmp	r3, r2
 363 0034 F2D8     		bhi	.L69
 364 0036 0029     		cmp	r1, #0
 365 0038 F0D0     		beq	.L69
 366 003a 264E     		ldr	r6, .L82+20
 367 003c 3369     		ldr	r3, [r6, #16]
 368 003e 002B     		cmp	r3, #0
 369 0040 08D1     		bne	.L81
 370 0042 254B     		ldr	r3, .L82+24
 371 0044 254A     		ldr	r2, .L82+28
 372 0046 1B68     		ldr	r3, [r3]
 373 0048 0720     		movs	r0, #7
 374 004a 9B0A     		lsrs	r3, r3, #10
 375 004c 1360     		str	r3, [r2]
 376 004e 0123     		movs	r3, #1
 377 0050 3361     		str	r3, [r6, #16]
 378 0052 E3E7     		b	.L69
 379              	.L81:
 380 0054 214B     		ldr	r3, .L82+28
 381 0056 0A38     		subs	r0, r0, #10
 382 0058 1B68     		ldr	r3, [r3]
 383 005a 002B     		cmp	r3, #0
 384 005c DEDA     		bge	.L69
 385 005e 204B     		ldr	r3, .L82+32
 386 0060 0A30     		adds	r0, r0, #10
 387 0062 1A68     		ldr	r2, [r3]
 388 0064 002A     		cmp	r2, #0
 389 0066 D9D0     		beq	.L69
 390 0068 1E4A     		ldr	r2, .L82+36
 391 006a 9442     		cmp	r4, r2
 392 006c 10D9     		bls	.L71
 393 006e 1868     		ldr	r0, [r3]
 394 0070 194B     		ldr	r3, .L82+24
 395 0072 1968     		ldr	r1, [r3]
 396 0074 4843     		muls	r0, r1
 397 0076 890A     		lsrs	r1, r1, #10
 398 0078 FFF7FEFF 		bl	__aeabi_uidiv
 399 007c 1A49     		ldr	r1, .L82+40
ARM GAS  C:\Users\DMA\AppData\Local\Temp\cckthxUn.s 			page 8


 400 007e 4709     		lsrs	r7, r0, #5
 401 0080 2000     		movs	r0, r4
 402 0082 FFF7FEFF 		bl	__aeabi_uidiv
 403 0086 7843     		muls	r0, r7
 404              	.L72:
 405 0088 2860     		str	r0, [r5]
 406 008a 0020     		movs	r0, #0
 407 008c 3061     		str	r0, [r6, #16]
 408 008e C5E7     		b	.L69
 409              	.L71:
 410 0090 6420     		movs	r0, #100
 411 0092 1B68     		ldr	r3, [r3]
 412 0094 4443     		muls	r4, r0
 413 0096 9846     		mov	r8, r3
 414 0098 0F4B     		ldr	r3, .L82+24
 415 009a 1449     		ldr	r1, .L82+44
 416 009c 1F68     		ldr	r7, [r3]
 417 009e 144B     		ldr	r3, .L82+48
 418 00a0 E018     		adds	r0, r4, r3
 419 00a2 FFF7FEFF 		bl	__aeabi_uidiv
 420 00a6 0400     		movs	r4, r0
 421 00a8 4046     		mov	r0, r8
 422 00aa B90A     		lsrs	r1, r7, #10
 423 00ac 7843     		muls	r0, r7
 424 00ae FFF7FEFF 		bl	__aeabi_uidiv
 425 00b2 FA21     		movs	r1, #250
 426 00b4 6043     		muls	r0, r4
 427 00b6 C901     		lsls	r1, r1, #7
 428 00b8 FFF7FEFF 		bl	__aeabi_uidiv
 429 00bc E4E7     		b	.L72
 430              	.L83:
 431 00be C046     		.align	2
 432              	.L82:
 433 00c0 10010B40 		.word	1074462992
 434 00c4 3F3F0000 		.word	16191
 435 00c8 08000340 		.word	1073938440
 436 00cc 0A0B0000 		.word	2826
 437 00d0 9C276BEE 		.word	-294967396
 438 00d4 00000000 		.word	.LANCHOR0
 439 00d8 00000000 		.word	cydelayFreqHz
 440 00dc 18000340 		.word	1073938456
 441 00e0 1C000340 		.word	1073938460
 442 00e4 60D10000 		.word	53600
 443 00e8 18790000 		.word	31000
 444 00ec 350C0000 		.word	3125
 445 00f0 0D030000 		.word	781
 446              		.size	CySysClkIloCompensate, .-CySysClkIloCompensate
 447              		.global	__aeabi_idiv
 448              		.section	.text.CySysClkIloTrim,"ax",%progbits
 449              		.align	2
 450              		.global	CySysClkIloTrim
 451              		.code	16
 452              		.thumb_func
 453              		.type	CySysClkIloTrim, %function
 454              	CySysClkIloTrim:
 455              		@ args = 0, pretend = 0, frame = 0
 456              		@ frame_needed = 0, uses_anonymous_args = 0
ARM GAS  C:\Users\DMA\AppData\Local\Temp\cckthxUn.s 			page 9


 457 0000 F8B5     		push	{r3, r4, r5, r6, r7, lr}
 458 0002 734B     		ldr	r3, .L132
 459 0004 4D46     		mov	r5, r9
 460 0006 1A68     		ldr	r2, [r3]
 461 0008 724B     		ldr	r3, .L132+4
 462 000a 5F46     		mov	r7, fp
 463 000c 5646     		mov	r6, r10
 464 000e 4446     		mov	r4, r8
 465 0010 1340     		ands	r3, r2
 466 0012 8022     		movs	r2, #128
 467 0014 F0B4     		push	{r4, r5, r6, r7}
 468 0016 5200     		lsls	r2, r2, #1
 469 0018 0D00     		movs	r5, r1
 470 001a 9342     		cmp	r3, r2
 471 001c 06D0     		beq	.L85
 472              	.L87:
 473 001e 1120     		movs	r0, #17
 474              	.L121:
 475              		@ sp needed
 476 0020 3CBC     		pop	{r2, r3, r4, r5}
 477 0022 9046     		mov	r8, r2
 478 0024 9946     		mov	r9, r3
 479 0026 A246     		mov	r10, r4
 480 0028 AB46     		mov	fp, r5
 481 002a F8BD     		pop	{r3, r4, r5, r6, r7, pc}
 482              	.L85:
 483 002c 6A4B     		ldr	r3, .L132+8
 484 002e 1A68     		ldr	r2, [r3]
 485 0030 6A4B     		ldr	r3, .L132+12
 486 0032 9A42     		cmp	r2, r3
 487 0034 F3D1     		bne	.L87
 488 0036 0029     		cmp	r1, #0
 489 0038 F1D0     		beq	.L87
 490 003a 0028     		cmp	r0, #0
 491 003c 5DD1     		bne	.L88
 492 003e 684A     		ldr	r2, .L132+16
 493 0040 684B     		ldr	r3, .L132+20
 494 0042 9046     		mov	r8, r2
 495 0044 684A     		ldr	r2, .L132+24
 496 0046 9B46     		mov	fp, r3
 497 0048 1B68     		ldr	r3, [r3]
 498 004a 9246     		mov	r10, r2
 499 004c 674A     		ldr	r2, .L132+28
 500 004e 9B0A     		lsrs	r3, r3, #10
 501 0050 1C00     		movs	r4, r3
 502 0052 0527     		movs	r7, #5
 503 0054 9146     		mov	r9, r2
 504 0056 664E     		ldr	r6, .L132+32
 505              	.L99:
 506 0058 3360     		str	r3, [r6]
 507 005a 02E0     		b	.L89
 508              	.L91:
 509 005c 013C     		subs	r4, r4, #1
 510 005e 002C     		cmp	r4, #0
 511 0060 02D0     		beq	.L90
 512              	.L89:
 513 0062 3368     		ldr	r3, [r6]
ARM GAS  C:\Users\DMA\AppData\Local\Temp\cckthxUn.s 			page 10


 514 0064 002B     		cmp	r3, #0
 515 0066 F9DA     		bge	.L91
 516              	.L90:
 517 0068 5346     		mov	r3, r10
 518 006a 1B68     		ldr	r3, [r3]
 519 006c 002B     		cmp	r3, #0
 520 006e 09D1     		bne	.L128
 521 0070 1123     		movs	r3, #17
 522 0072 4246     		mov	r2, r8
 523 0074 5361     		str	r3, [r2, #20]
 524 0076 012F     		cmp	r7, #1
 525 0078 D1D1     		bne	.L87
 526              	.L98:
 527 007a 0023     		movs	r3, #0
 528 007c 4246     		mov	r2, r8
 529 007e 1020     		movs	r0, #16
 530 0080 5361     		str	r3, [r2, #20]
 531 0082 CDE7     		b	.L121
 532              	.L128:
 533 0084 5346     		mov	r3, r10
 534 0086 1868     		ldr	r0, [r3]
 535 0088 5B46     		mov	r3, fp
 536 008a 1968     		ldr	r1, [r3]
 537 008c 4843     		muls	r0, r1
 538 008e 890A     		lsrs	r1, r1, #10
 539 0090 FFF7FEFF 		bl	__aeabi_uidiv
 540 0094 574B     		ldr	r3, .L132+36
 541 0096 1F22     		movs	r2, #31
 542 0098 9C46     		mov	ip, r3
 543 009a 6044     		add	r0, r0, ip
 544 009c C317     		asrs	r3, r0, #31
 545 009e 1340     		ands	r3, r2
 546 00a0 1818     		adds	r0, r3, r0
 547 00a2 4311     		asrs	r3, r0, #5
 548 00a4 D917     		asrs	r1, r3, #31
 549 00a6 5A18     		adds	r2, r3, r1
 550 00a8 4A40     		eors	r2, r1
 551 00aa 382A     		cmp	r2, #56
 552 00ac 34DD     		ble	.L93
 553 00ae 9800     		lsls	r0, r3, #2
 554 00b0 002B     		cmp	r3, #0
 555 00b2 46DD     		ble	.L94
 556 00b4 C318     		adds	r3, r0, r3
 557 00b6 5B00     		lsls	r3, r3, #1
 558 00b8 7133     		adds	r3, r3, #113
 559 00ba FF33     		adds	r3, r3, #255
 560 00bc 1800     		movs	r0, r3
 561 00be 4E49     		ldr	r1, .L132+40
 562 00c0 FFF7FEFF 		bl	__aeabi_idiv
 563              	.L95:
 564 00c4 4B46     		mov	r3, r9
 565 00c6 0F22     		movs	r2, #15
 566 00c8 1B68     		ldr	r3, [r3]
 567 00ca 1340     		ands	r3, r2
 568 00cc 181A     		subs	r0, r3, r0
 569 00ce 0F28     		cmp	r0, #15
 570 00d0 02DC     		bgt	.L97
ARM GAS  C:\Users\DMA\AppData\Local\Temp\cckthxUn.s 			page 11


 571 00d2 0022     		movs	r2, #0
 572 00d4 0028     		cmp	r0, #0
 573 00d6 3CDA     		bge	.L129
 574              	.L97:
 575 00d8 4B46     		mov	r3, r9
 576 00da 0F21     		movs	r1, #15
 577 00dc 1B68     		ldr	r3, [r3]
 578 00de 013F     		subs	r7, r7, #1
 579 00e0 8B43     		bics	r3, r1
 580 00e2 1343     		orrs	r3, r2
 581 00e4 4A46     		mov	r2, r9
 582 00e6 1360     		str	r3, [r2]
 583 00e8 4346     		mov	r3, r8
 584 00ea 0722     		movs	r2, #7
 585 00ec 5A61     		str	r2, [r3, #20]
 586 00ee 002F     		cmp	r7, #0
 587 00f0 C3D0     		beq	.L98
 588 00f2 5B46     		mov	r3, fp
 589 00f4 1B68     		ldr	r3, [r3]
 590 00f6 9B0A     		lsrs	r3, r3, #10
 591 00f8 AEE7     		b	.L99
 592              	.L88:
 593 00fa 394B     		ldr	r3, .L132+16
 594 00fc 9846     		mov	r8, r3
 595 00fe 5B69     		ldr	r3, [r3, #20]
 596 0100 002B     		cmp	r3, #0
 597 0102 0FD1     		bne	.L130
 598 0104 374B     		ldr	r3, .L132+20
 599 0106 3A4A     		ldr	r2, .L132+32
 600 0108 1B68     		ldr	r3, [r3]
 601 010a 0720     		movs	r0, #7
 602 010c 9B0A     		lsrs	r3, r3, #10
 603 010e 1360     		str	r3, [r2]
 604 0110 0123     		movs	r3, #1
 605 0112 4246     		mov	r2, r8
 606 0114 5361     		str	r3, [r2, #20]
 607 0116 83E7     		b	.L121
 608              	.L93:
 609 0118 2B60     		str	r3, [r5]
 610 011a 4246     		mov	r2, r8
 611 011c 0023     		movs	r3, #0
 612 011e 0020     		movs	r0, #0
 613 0120 5361     		str	r3, [r2, #20]
 614 0122 7DE7     		b	.L121
 615              	.L130:
 616 0124 324B     		ldr	r3, .L132+32
 617 0126 0720     		movs	r0, #7
 618 0128 1B68     		ldr	r3, [r3]
 619 012a 002B     		cmp	r3, #0
 620 012c 00DB     		blt	.LCB677
 621 012e 77E7     		b	.L121	@long jump
 622              	.LCB677:
 623 0130 2D4B     		ldr	r3, .L132+24
 624 0132 0A30     		adds	r0, r0, #10
 625 0134 1A68     		ldr	r2, [r3]
 626 0136 002A     		cmp	r2, #0
 627 0138 0DD1     		bne	.L131
ARM GAS  C:\Users\DMA\AppData\Local\Temp\cckthxUn.s 			page 12


 628              	.L101:
 629 013a 0023     		movs	r3, #0
 630 013c 4246     		mov	r2, r8
 631 013e 5361     		str	r3, [r2, #20]
 632 0140 6EE7     		b	.L121
 633              	.L94:
 634 0142 C018     		adds	r0, r0, r3
 635 0144 4000     		lsls	r0, r0, #1
 636 0146 7138     		subs	r0, r0, #113
 637 0148 2B49     		ldr	r1, .L132+40
 638 014a FF38     		subs	r0, r0, #255
 639 014c FFF7FEFF 		bl	__aeabi_idiv
 640 0150 B8E7     		b	.L95
 641              	.L129:
 642 0152 0200     		movs	r2, r0
 643 0154 C0E7     		b	.L97
 644              	.L131:
 645 0156 1868     		ldr	r0, [r3]
 646 0158 224B     		ldr	r3, .L132+20
 647 015a 1968     		ldr	r1, [r3]
 648 015c 4843     		muls	r0, r1
 649 015e 890A     		lsrs	r1, r1, #10
 650 0160 FFF7FEFF 		bl	__aeabi_uidiv
 651 0164 234B     		ldr	r3, .L132+36
 652 0166 9C46     		mov	ip, r3
 653 0168 1F23     		movs	r3, #31
 654 016a 6044     		add	r0, r0, ip
 655 016c C217     		asrs	r2, r0, #31
 656 016e 1340     		ands	r3, r2
 657 0170 1B18     		adds	r3, r3, r0
 658 0172 5B11     		asrs	r3, r3, #5
 659 0174 D917     		asrs	r1, r3, #31
 660 0176 5A18     		adds	r2, r3, r1
 661 0178 4A40     		eors	r2, r1
 662 017a 382A     		cmp	r2, #56
 663 017c 1BDD     		ble	.L102
 664 017e 0A20     		movs	r0, #10
 665 0180 002B     		cmp	r3, #0
 666 0182 1DDD     		ble	.L103
 667 0184 4343     		muls	r3, r0
 668 0186 7133     		adds	r3, r3, #113
 669 0188 FF33     		adds	r3, r3, #255
 670 018a 1800     		movs	r0, r3
 671 018c 1A49     		ldr	r1, .L132+40
 672 018e FFF7FEFF 		bl	__aeabi_idiv
 673              	.L104:
 674 0192 0F22     		movs	r2, #15
 675 0194 154B     		ldr	r3, .L132+28
 676 0196 1B68     		ldr	r3, [r3]
 677 0198 1340     		ands	r3, r2
 678 019a 181A     		subs	r0, r3, r0
 679 019c 9042     		cmp	r0, r2
 680 019e 0DDC     		bgt	.L111
 681 01a0 C343     		mvns	r3, r0
 682 01a2 DB17     		asrs	r3, r3, #31
 683 01a4 1840     		ands	r0, r3
 684              	.L106:
ARM GAS  C:\Users\DMA\AppData\Local\Temp\cckthxUn.s 			page 13


 685 01a6 0F21     		movs	r1, #15
 686 01a8 104A     		ldr	r2, .L132+28
 687 01aa 1368     		ldr	r3, [r2]
 688 01ac 8B43     		bics	r3, r1
 689 01ae 1843     		orrs	r0, r3
 690 01b0 1060     		str	r0, [r2]
 691 01b2 0720     		movs	r0, #7
 692 01b4 C1E7     		b	.L101
 693              	.L102:
 694 01b6 2B60     		str	r3, [r5]
 695 01b8 0020     		movs	r0, #0
 696 01ba BEE7     		b	.L101
 697              	.L111:
 698 01bc 1000     		movs	r0, r2
 699 01be F2E7     		b	.L106
 700              	.L103:
 701 01c0 4343     		muls	r3, r0
 702 01c2 713B     		subs	r3, r3, #113
 703 01c4 FF3B     		subs	r3, r3, #255
 704 01c6 1800     		movs	r0, r3
 705 01c8 0B49     		ldr	r1, .L132+40
 706 01ca FFF7FEFF 		bl	__aeabi_idiv
 707 01ce E0E7     		b	.L104
 708              	.L133:
 709              		.align	2
 710              	.L132:
 711 01d0 10010B40 		.word	1074462992
 712 01d4 3F3F0000 		.word	16191
 713 01d8 08000340 		.word	1073938440
 714 01dc 0A0B0000 		.word	2826
 715 01e0 00000000 		.word	.LANCHOR0
 716 01e4 00000000 		.word	cydelayFreqHz
 717 01e8 1C000340 		.word	1073938460
 718 01ec 24FF0B40 		.word	1074528036
 719 01f0 18000340 		.word	1073938456
 720 01f4 0083FFFF 		.word	-32000
 721 01f8 E1020000 		.word	737
 722              		.size	CySysClkIloTrim, .-CySysClkIloTrim
 723              		.section	.text.CySysClkIloUpdateTrimReg,"ax",%progbits
 724              		.align	2
 725              		.global	CySysClkIloUpdateTrimReg
 726              		.code	16
 727              		.thumb_func
 728              		.type	CySysClkIloUpdateTrimReg, %function
 729              	CySysClkIloUpdateTrimReg:
 730              		@ args = 0, pretend = 0, frame = 0
 731              		@ frame_needed = 0, uses_anonymous_args = 0
 732 0000 224B     		ldr	r3, .L147
 733 0002 10B5     		push	{r4, lr}
 734 0004 1A68     		ldr	r2, [r3]
 735 0006 0400     		movs	r4, r0
 736 0008 1120     		movs	r0, #17
 737 000a 002A     		cmp	r2, #0
 738 000c 00D1     		bne	.L145
 739              	.L135:
 740              		@ sp needed
 741 000e 10BD     		pop	{r4, pc}
ARM GAS  C:\Users\DMA\AppData\Local\Temp\cckthxUn.s 			page 14


 742              	.L145:
 743 0010 1868     		ldr	r0, [r3]
 744 0012 1F4B     		ldr	r3, .L147+4
 745 0014 1968     		ldr	r1, [r3]
 746 0016 4843     		muls	r0, r1
 747 0018 890A     		lsrs	r1, r1, #10
 748 001a FFF7FEFF 		bl	__aeabi_uidiv
 749 001e 1D4B     		ldr	r3, .L147+8
 750 0020 1F22     		movs	r2, #31
 751 0022 9C46     		mov	ip, r3
 752 0024 6044     		add	r0, r0, ip
 753 0026 C317     		asrs	r3, r0, #31
 754 0028 1340     		ands	r3, r2
 755 002a 1818     		adds	r0, r3, r0
 756 002c 4011     		asrs	r0, r0, #5
 757 002e C217     		asrs	r2, r0, #31
 758 0030 8318     		adds	r3, r0, r2
 759 0032 5340     		eors	r3, r2
 760 0034 382B     		cmp	r3, #56
 761 0036 24DD     		ble	.L136
 762 0038 8300     		lsls	r3, r0, #2
 763 003a 0028     		cmp	r0, #0
 764 003c 19DD     		ble	.L137
 765 003e 1818     		adds	r0, r3, r0
 766 0040 4000     		lsls	r0, r0, #1
 767 0042 7130     		adds	r0, r0, #113
 768 0044 FF30     		adds	r0, r0, #255
 769 0046 1449     		ldr	r1, .L147+12
 770 0048 FFF7FEFF 		bl	__aeabi_idiv
 771              	.L138:
 772 004c 0F22     		movs	r2, #15
 773 004e 134B     		ldr	r3, .L147+16
 774 0050 1B68     		ldr	r3, [r3]
 775 0052 1340     		ands	r3, r2
 776 0054 181A     		subs	r0, r3, r0
 777 0056 0F23     		movs	r3, #15
 778 0058 0F28     		cmp	r0, #15
 779 005a 02DC     		bgt	.L140
 780 005c 0023     		movs	r3, #0
 781 005e 0028     		cmp	r0, #0
 782 0060 12DA     		bge	.L146
 783              	.L140:
 784 0062 0F20     		movs	r0, #15
 785 0064 0D49     		ldr	r1, .L147+16
 786 0066 0A68     		ldr	r2, [r1]
 787 0068 8243     		bics	r2, r0
 788 006a 1343     		orrs	r3, r2
 789 006c 0B60     		str	r3, [r1]
 790 006e 0838     		subs	r0, r0, #8
 791 0070 CDE7     		b	.L135
 792              	.L137:
 793 0072 1818     		adds	r0, r3, r0
 794 0074 4000     		lsls	r0, r0, #1
 795 0076 7138     		subs	r0, r0, #113
 796 0078 0749     		ldr	r1, .L147+12
 797 007a FF38     		subs	r0, r0, #255
 798 007c FFF7FEFF 		bl	__aeabi_idiv
ARM GAS  C:\Users\DMA\AppData\Local\Temp\cckthxUn.s 			page 15


 799 0080 E4E7     		b	.L138
 800              	.L136:
 801 0082 2060     		str	r0, [r4]
 802 0084 0020     		movs	r0, #0
 803 0086 C2E7     		b	.L135
 804              	.L146:
 805 0088 0300     		movs	r3, r0
 806 008a EAE7     		b	.L140
 807              	.L148:
 808              		.align	2
 809              	.L147:
 810 008c 1C000340 		.word	1073938460
 811 0090 00000000 		.word	cydelayFreqHz
 812 0094 0083FFFF 		.word	-32000
 813 0098 E1020000 		.word	737
 814 009c 24FF0B40 		.word	1074528036
 815              		.size	CySysClkIloUpdateTrimReg, .-CySysClkIloUpdateTrimReg
 816              		.section	.text.CySysClkIloRestoreFactoryTrim,"ax",%progbits
 817              		.align	2
 818              		.global	CySysClkIloRestoreFactoryTrim
 819              		.code	16
 820              		.thumb_func
 821              		.type	CySysClkIloRestoreFactoryTrim, %function
 822              	CySysClkIloRestoreFactoryTrim:
 823              		@ args = 0, pretend = 0, frame = 0
 824              		@ frame_needed = 0, uses_anonymous_args = 0
 825              		@ link register save eliminated.
 826 0000 084A     		ldr	r2, .L152
 827 0002 1388     		ldrh	r3, [r2]
 828 0004 F02B     		cmp	r3, #240
 829 0006 09D0     		beq	.L151
 830 0008 0F23     		movs	r3, #15
 831 000a 0748     		ldr	r0, .L152+4
 832 000c 0168     		ldr	r1, [r0]
 833 000e 1288     		ldrh	r2, [r2]
 834 0010 9943     		bics	r1, r3
 835 0012 1340     		ands	r3, r2
 836 0014 0B43     		orrs	r3, r1
 837 0016 0360     		str	r3, [r0]
 838 0018 0020     		movs	r0, #0
 839              	.L150:
 840              		@ sp needed
 841 001a 7047     		bx	lr
 842              	.L151:
 843 001c 0120     		movs	r0, #1
 844 001e 4042     		rsbs	r0, r0, #0
 845 0020 FBE7     		b	.L150
 846              	.L153:
 847 0022 C046     		.align	2
 848              	.L152:
 849 0024 00000000 		.word	.LANCHOR1
 850 0028 24FF0B40 		.word	1074528036
 851              		.size	CySysClkIloRestoreFactoryTrim, .-CySysClkIloRestoreFactoryTrim
 852              		.section	.text.CySysClkSetLfclkSource,"ax",%progbits
 853              		.align	2
 854              		.global	CySysClkSetLfclkSource
 855              		.code	16
ARM GAS  C:\Users\DMA\AppData\Local\Temp\cckthxUn.s 			page 16


 856              		.thumb_func
 857              		.type	CySysClkSetLfclkSource, %function
 858              	CySysClkSetLfclkSource:
 859              		@ args = 0, pretend = 0, frame = 0
 860              		@ frame_needed = 0, uses_anonymous_args = 0
 861 0000 70B5     		push	{r4, r5, r6, lr}
 862 0002 174D     		ldr	r5, .L162
 863 0004 0400     		movs	r4, r0
 864 0006 2B68     		ldr	r3, [r5]
 865 0008 9B0F     		lsrs	r3, r3, #30
 866 000a 9B07     		lsls	r3, r3, #30
 867 000c 9842     		cmp	r0, r3
 868 000e 12D0     		beq	.L154
 869 0010 FFF7FEFF 		bl	CyEnterCriticalSection
 870 0014 0600     		movs	r6, r0
 871 0016 FFF7FEFF 		bl	CySysClkLfclkPosedgeCatch
 872 001a 2B68     		ldr	r3, [r5]
 873 001c A40F     		lsrs	r4, r4, #30
 874 001e 9B00     		lsls	r3, r3, #2
 875 0020 9B08     		lsrs	r3, r3, #2
 876 0022 A407     		lsls	r4, r4, #30
 877 0024 1C43     		orrs	r4, r3
 878 0026 0F4B     		ldr	r3, .L162+4
 879 0028 2C60     		str	r4, [r5]
 880 002a 5A68     		ldr	r2, [r3, #4]
 881 002c 002A     		cmp	r2, #0
 882 002e 03D1     		bne	.L161
 883              	.L156:
 884 0030 3000     		movs	r0, r6
 885 0032 FFF7FEFF 		bl	CyExitCriticalSection
 886              	.L154:
 887              		@ sp needed
 888 0036 70BD     		pop	{r4, r5, r6, pc}
 889              	.L161:
 890 0038 0120     		movs	r0, #1
 891 003a 0B4A     		ldr	r2, .L162+8
 892 003c 1168     		ldr	r1, [r2]
 893 003e 8143     		bics	r1, r0
 894 0040 1160     		str	r1, [r2]
 895 0042 1268     		ldr	r2, [r2]
 896 0044 5208     		lsrs	r2, r2, #1
 897 0046 1042     		tst	r0, r2
 898 0048 06D1     		bne	.L157
 899 004a 0322     		movs	r2, #3
 900 004c 2968     		ldr	r1, [r5]
 901 004e 9868     		ldr	r0, [r3, #8]
 902 0050 9143     		bics	r1, r2
 903 0052 0240     		ands	r2, r0
 904 0054 0A43     		orrs	r2, r1
 905 0056 2A60     		str	r2, [r5]
 906              	.L157:
 907 0058 0022     		movs	r2, #0
 908 005a 5A60     		str	r2, [r3, #4]
 909 005c E8E7     		b	.L156
 910              	.L163:
 911 005e C046     		.align	2
 912              	.L162:
ARM GAS  C:\Users\DMA\AppData\Local\Temp\cckthxUn.s 			page 17


 913 0060 0C020B40 		.word	1074463244
 914 0064 00000000 		.word	.LANCHOR0
 915 0068 10020B40 		.word	1074463248
 916              		.size	CySysClkSetLfclkSource, .-CySysClkSetLfclkSource
 917              		.section	.text.CySysClkWcoStart,"ax",%progbits
 918              		.align	2
 919              		.global	CySysClkWcoStart
 920              		.code	16
 921              		.thumb_func
 922              		.type	CySysClkWcoStart, %function
 923              	CySysClkWcoStart:
 924              		@ args = 0, pretend = 0, frame = 0
 925              		@ frame_needed = 0, uses_anonymous_args = 0
 926 0000 0121     		movs	r1, #1
 927 0002 0220     		movs	r0, #2
 928 0004 10B5     		push	{r4, lr}
 929 0006 3024     		movs	r4, #48
 930 0008 0B4B     		ldr	r3, .L165
 931              		@ sp needed
 932 000a 1A68     		ldr	r2, [r3]
 933 000c 8A43     		bics	r2, r1
 934 000e 1A60     		str	r2, [r3]
 935 0010 1A68     		ldr	r2, [r3]
 936 0012 8243     		bics	r2, r0
 937 0014 1A60     		str	r2, [r3]
 938 0016 094A     		ldr	r2, .L165+4
 939 0018 1068     		ldr	r0, [r2]
 940 001a A043     		bics	r0, r4
 941 001c 203C     		subs	r4, r4, #32
 942 001e 2043     		orrs	r0, r4
 943 0020 1060     		str	r0, [r2]
 944 0022 1068     		ldr	r0, [r2]
 945 0024 093C     		subs	r4, r4, #9
 946 0026 A043     		bics	r0, r4
 947 0028 0143     		orrs	r1, r0
 948 002a 1160     		str	r1, [r2]
 949 002c 8021     		movs	r1, #128
 950 002e 1A68     		ldr	r2, [r3]
 951 0030 0906     		lsls	r1, r1, #24
 952 0032 0A43     		orrs	r2, r1
 953 0034 1A60     		str	r2, [r3]
 954 0036 10BD     		pop	{r4, pc}
 955              	.L166:
 956              		.align	2
 957              	.L165:
 958 0038 00F02E40 		.word	1076817920
 959 003c 00FF2E40 		.word	1076821760
 960              		.size	CySysClkWcoStart, .-CySysClkWcoStart
 961              		.section	.text.CySysClkWcoStop,"ax",%progbits
 962              		.align	2
 963              		.global	CySysClkWcoStop
 964              		.code	16
 965              		.thumb_func
 966              		.type	CySysClkWcoStop, %function
 967              	CySysClkWcoStop:
 968              		@ args = 0, pretend = 0, frame = 0
 969              		@ frame_needed = 0, uses_anonymous_args = 0
ARM GAS  C:\Users\DMA\AppData\Local\Temp\cckthxUn.s 			page 18


 970 0000 70B5     		push	{r4, r5, r6, lr}
 971 0002 194C     		ldr	r4, .L183
 972 0004 2368     		ldr	r3, [r4]
 973 0006 002B     		cmp	r3, #0
 974 0008 00DB     		blt	.L180
 975              	.L167:
 976              		@ sp needed
 977 000a 70BD     		pop	{r4, r5, r6, pc}
 978              	.L180:
 979 000c 174D     		ldr	r5, .L183+4
 980 000e 2B68     		ldr	r3, [r5]
 981 0010 9B0F     		lsrs	r3, r3, #30
 982 0012 012B     		cmp	r3, #1
 983 0014 04D0     		beq	.L181
 984 0016 2368     		ldr	r3, [r4]
 985 0018 5B00     		lsls	r3, r3, #1
 986 001a 5B08     		lsrs	r3, r3, #1
 987 001c 2360     		str	r3, [r4]
 988 001e F4E7     		b	.L167
 989              	.L181:
 990 0020 FFF7FEFF 		bl	CyEnterCriticalSection
 991 0024 0600     		movs	r6, r0
 992 0026 FFF7FEFF 		bl	CySysClkLfclkPosedgeCatch
 993 002a 2368     		ldr	r3, [r4]
 994 002c 5B00     		lsls	r3, r3, #1
 995 002e 5B08     		lsrs	r3, r3, #1
 996 0030 2360     		str	r3, [r4]
 997 0032 0F4B     		ldr	r3, .L183+8
 998 0034 5A68     		ldr	r2, [r3, #4]
 999 0036 002A     		cmp	r2, #0
 1000 0038 03D1     		bne	.L182
 1001              	.L170:
 1002 003a 3000     		movs	r0, r6
 1003 003c FFF7FEFF 		bl	CyExitCriticalSection
 1004 0040 E3E7     		b	.L167
 1005              	.L182:
 1006 0042 0120     		movs	r0, #1
 1007 0044 0B4A     		ldr	r2, .L183+12
 1008 0046 1168     		ldr	r1, [r2]
 1009 0048 8143     		bics	r1, r0
 1010 004a 1160     		str	r1, [r2]
 1011 004c 1268     		ldr	r2, [r2]
 1012 004e 5208     		lsrs	r2, r2, #1
 1013 0050 1042     		tst	r0, r2
 1014 0052 06D1     		bne	.L171
 1015 0054 0322     		movs	r2, #3
 1016 0056 2968     		ldr	r1, [r5]
 1017 0058 9868     		ldr	r0, [r3, #8]
 1018 005a 9143     		bics	r1, r2
 1019 005c 0240     		ands	r2, r0
 1020 005e 0A43     		orrs	r2, r1
 1021 0060 2A60     		str	r2, [r5]
 1022              	.L171:
 1023 0062 0022     		movs	r2, #0
 1024 0064 5A60     		str	r2, [r3, #4]
 1025 0066 E8E7     		b	.L170
 1026              	.L184:
ARM GAS  C:\Users\DMA\AppData\Local\Temp\cckthxUn.s 			page 19


 1027              		.align	2
 1028              	.L183:
 1029 0068 00F02E40 		.word	1076817920
 1030 006c 0C020B40 		.word	1074463244
 1031 0070 00000000 		.word	.LANCHOR0
 1032 0074 10020B40 		.word	1074463248
 1033              		.size	CySysClkWcoStop, .-CySysClkWcoStop
 1034              		.section	.text.CySysClkWcoEnabled,"ax",%progbits
 1035              		.align	2
 1036              		.global	CySysClkWcoEnabled
 1037              		.code	16
 1038              		.thumb_func
 1039              		.type	CySysClkWcoEnabled, %function
 1040              	CySysClkWcoEnabled:
 1041              		@ args = 0, pretend = 0, frame = 0
 1042              		@ frame_needed = 0, uses_anonymous_args = 0
 1043              		@ link register save eliminated.
 1044 0000 014B     		ldr	r3, .L186
 1045              		@ sp needed
 1046 0002 1868     		ldr	r0, [r3]
 1047 0004 C00F     		lsrs	r0, r0, #31
 1048 0006 7047     		bx	lr
 1049              	.L187:
 1050              		.align	2
 1051              	.L186:
 1052 0008 00F02E40 		.word	1076817920
 1053              		.size	CySysClkWcoEnabled, .-CySysClkWcoEnabled
 1054              		.section	.text.CySysClkWcoSetPowerMode,"ax",%progbits
 1055              		.align	2
 1056              		.global	CySysClkWcoSetPowerMode
 1057              		.code	16
 1058              		.thumb_func
 1059              		.type	CySysClkWcoSetPowerMode, %function
 1060              	CySysClkWcoSetPowerMode:
 1061              		@ args = 0, pretend = 0, frame = 0
 1062              		@ frame_needed = 0, uses_anonymous_args = 0
 1063 0000 0122     		movs	r2, #1
 1064 0002 1B4B     		ldr	r3, .L195
 1065 0004 70B5     		push	{r4, r5, r6, lr}
 1066 0006 1968     		ldr	r1, [r3]
 1067 0008 1140     		ands	r1, r2
 1068 000a 0C00     		movs	r4, r1
 1069 000c 0028     		cmp	r0, #0
 1070 000e 1AD0     		beq	.L190
 1071 0010 0128     		cmp	r0, #1
 1072 0012 04D0     		beq	.L191
 1073 0014 0020     		movs	r0, #0
 1074 0016 FFF7FEFF 		bl	CyHalt
 1075              	.L192:
 1076 001a 2000     		movs	r0, r4
 1077              		@ sp needed
 1078 001c 70BD     		pop	{r4, r5, r6, pc}
 1079              	.L191:
 1080 001e 0221     		movs	r1, #2
 1081 0020 0726     		movs	r6, #7
 1082 0022 1A68     		ldr	r2, [r3]
 1083 0024 8A43     		bics	r2, r1
ARM GAS  C:\Users\DMA\AppData\Local\Temp\cckthxUn.s 			page 20


 1084 0026 1A60     		str	r2, [r3]
 1085 0028 124A     		ldr	r2, .L195+4
 1086 002a 1568     		ldr	r5, [r2]
 1087 002c B543     		bics	r5, r6
 1088 002e 2943     		orrs	r1, r5
 1089 0030 3025     		movs	r5, #48
 1090 0032 1160     		str	r1, [r2]
 1091 0034 1168     		ldr	r1, [r2]
 1092 0036 A943     		bics	r1, r5
 1093 0038 103D     		subs	r5, r5, #16
 1094 003a 2943     		orrs	r1, r5
 1095 003c 1160     		str	r1, [r2]
 1096 003e 1A68     		ldr	r2, [r3]
 1097 0040 1043     		orrs	r0, r2
 1098 0042 1860     		str	r0, [r3]
 1099 0044 E9E7     		b	.L192
 1100              	.L190:
 1101 0046 0220     		movs	r0, #2
 1102 0048 1968     		ldr	r1, [r3]
 1103 004a 9143     		bics	r1, r2
 1104 004c 1960     		str	r1, [r3]
 1105 004e 1968     		ldr	r1, [r3]
 1106 0050 8143     		bics	r1, r0
 1107 0052 1960     		str	r1, [r3]
 1108 0054 074B     		ldr	r3, .L195+4
 1109 0056 2E30     		adds	r0, r0, #46
 1110 0058 1968     		ldr	r1, [r3]
 1111 005a 8143     		bics	r1, r0
 1112 005c 2038     		subs	r0, r0, #32
 1113 005e 0143     		orrs	r1, r0
 1114 0060 1960     		str	r1, [r3]
 1115 0062 1968     		ldr	r1, [r3]
 1116 0064 0938     		subs	r0, r0, #9
 1117 0066 8143     		bics	r1, r0
 1118 0068 0A43     		orrs	r2, r1
 1119 006a 1A60     		str	r2, [r3]
 1120 006c D5E7     		b	.L192
 1121              	.L196:
 1122 006e C046     		.align	2
 1123              	.L195:
 1124 0070 00F02E40 		.word	1076817920
 1125 0074 00FF2E40 		.word	1076821760
 1126              		.size	CySysClkWcoSetPowerMode, .-CySysClkWcoSetPowerMode
 1127              		.section	.text.CySysClkWcoClockOutSelect,"ax",%progbits
 1128              		.align	2
 1129              		.global	CySysClkWcoClockOutSelect
 1130              		.code	16
 1131              		.thumb_func
 1132              		.type	CySysClkWcoClockOutSelect, %function
 1133              	CySysClkWcoClockOutSelect:
 1134              		@ args = 0, pretend = 0, frame = 0
 1135              		@ frame_needed = 0, uses_anonymous_args = 0
 1136 0000 094B     		ldr	r3, .L207
 1137 0002 10B5     		push	{r4, lr}
 1138 0004 1A68     		ldr	r2, [r3]
 1139 0006 002A     		cmp	r2, #0
 1140 0008 00DB     		blt	.L205
ARM GAS  C:\Users\DMA\AppData\Local\Temp\cckthxUn.s 			page 21


 1141              	.L197:
 1142              		@ sp needed
 1143 000a 10BD     		pop	{r4, pc}
 1144              	.L205:
 1145 000c 0128     		cmp	r0, #1
 1146 000e 03D9     		bls	.L206
 1147 0010 0020     		movs	r0, #0
 1148 0012 FFF7FEFF 		bl	CyHalt
 1149 0016 F8E7     		b	.L197
 1150              	.L206:
 1151 0018 0421     		movs	r1, #4
 1152 001a 1A68     		ldr	r2, [r3]
 1153 001c 8000     		lsls	r0, r0, #2
 1154 001e 8A43     		bics	r2, r1
 1155 0020 1043     		orrs	r0, r2
 1156 0022 1860     		str	r0, [r3]
 1157 0024 F1E7     		b	.L197
 1158              	.L208:
 1159 0026 C046     		.align	2
 1160              	.L207:
 1161 0028 00F02E40 		.word	1076817920
 1162              		.size	CySysClkWcoClockOutSelect, .-CySysClkWcoClockOutSelect
 1163              		.section	.text.CySysWdtLock,"ax",%progbits
 1164              		.align	2
 1165              		.global	CySysWdtLock
 1166              		.code	16
 1167              		.thumb_func
 1168              		.type	CySysWdtLock, %function
 1169              	CySysWdtLock:
 1170              		@ args = 0, pretend = 0, frame = 0
 1171              		@ frame_needed = 0, uses_anonymous_args = 0
 1172 0000 10B5     		push	{r4, lr}
 1173 0002 FFF7FEFF 		bl	CyEnterCriticalSection
 1174 0006 C021     		movs	r1, #192
 1175 0008 034A     		ldr	r2, .L210
 1176 000a 0902     		lsls	r1, r1, #8
 1177 000c 1368     		ldr	r3, [r2]
 1178              		@ sp needed
 1179 000e 0B43     		orrs	r3, r1
 1180 0010 1360     		str	r3, [r2]
 1181 0012 FFF7FEFF 		bl	CyExitCriticalSection
 1182 0016 10BD     		pop	{r4, pc}
 1183              	.L211:
 1184              		.align	2
 1185              	.L210:
 1186 0018 00010B40 		.word	1074462976
 1187              		.size	CySysWdtLock, .-CySysWdtLock
 1188              		.section	.text.CySysWdtUnlock,"ax",%progbits
 1189              		.align	2
 1190              		.global	CySysWdtUnlock
 1191              		.code	16
 1192              		.thumb_func
 1193              		.type	CySysWdtUnlock, %function
 1194              	CySysWdtUnlock:
 1195              		@ args = 0, pretend = 0, frame = 0
 1196              		@ frame_needed = 0, uses_anonymous_args = 0
 1197 0000 10B5     		push	{r4, lr}
ARM GAS  C:\Users\DMA\AppData\Local\Temp\cckthxUn.s 			page 22


 1198 0002 8024     		movs	r4, #128
 1199 0004 FFF7FEFF 		bl	CyEnterCriticalSection
 1200 0008 0749     		ldr	r1, .L213
 1201 000a 084B     		ldr	r3, .L213+4
 1202 000c 0A68     		ldr	r2, [r1]
 1203 000e E401     		lsls	r4, r4, #7
 1204 0010 1A40     		ands	r2, r3
 1205 0012 2243     		orrs	r2, r4
 1206 0014 0A60     		str	r2, [r1]
 1207 0016 0A68     		ldr	r2, [r1]
 1208              		@ sp needed
 1209 0018 1340     		ands	r3, r2
 1210 001a 8022     		movs	r2, #128
 1211 001c 1202     		lsls	r2, r2, #8
 1212 001e 1343     		orrs	r3, r2
 1213 0020 0B60     		str	r3, [r1]
 1214 0022 FFF7FEFF 		bl	CyExitCriticalSection
 1215 0026 10BD     		pop	{r4, pc}
 1216              	.L214:
 1217              		.align	2
 1218              	.L213:
 1219 0028 00010B40 		.word	1074462976
 1220 002c FF3FFFFF 		.word	-49153
 1221              		.size	CySysWdtUnlock, .-CySysWdtUnlock
 1222              		.section	.text.CySysWdtGetEnabledStatus,"ax",%progbits
 1223              		.align	2
 1224              		.global	CySysWdtGetEnabledStatus
 1225              		.code	16
 1226              		.thumb_func
 1227              		.type	CySysWdtGetEnabledStatus, %function
 1228              	CySysWdtGetEnabledStatus:
 1229              		@ args = 0, pretend = 0, frame = 0
 1230              		@ frame_needed = 0, uses_anonymous_args = 0
 1231 0000 10B5     		push	{r4, lr}
 1232 0002 0400     		movs	r4, r0
 1233 0004 0228     		cmp	r0, #2
 1234 0006 02D9     		bls	.L216
 1235 0008 0020     		movs	r0, #0
 1236 000a FFF7FEFF 		bl	CyHalt
 1237              	.L216:
 1238 000e 044B     		ldr	r3, .L217
 1239 0010 E400     		lsls	r4, r4, #3
 1240 0012 1868     		ldr	r0, [r3]
 1241 0014 0134     		adds	r4, r4, #1
 1242 0016 E040     		lsrs	r0, r0, r4
 1243 0018 0123     		movs	r3, #1
 1244              		@ sp needed
 1245 001a 1840     		ands	r0, r3
 1246 001c 10BD     		pop	{r4, pc}
 1247              	.L218:
 1248 001e C046     		.align	2
 1249              	.L217:
 1250 0020 10020B40 		.word	1074463248
 1251              		.size	CySysWdtGetEnabledStatus, .-CySysWdtGetEnabledStatus
 1252              		.section	.text.CySysWdtSetMode,"ax",%progbits
 1253              		.align	2
 1254              		.global	CySysWdtSetMode
ARM GAS  C:\Users\DMA\AppData\Local\Temp\cckthxUn.s 			page 23


 1255              		.code	16
 1256              		.thumb_func
 1257              		.type	CySysWdtSetMode, %function
 1258              	CySysWdtSetMode:
 1259              		@ args = 0, pretend = 0, frame = 0
 1260              		@ frame_needed = 0, uses_anonymous_args = 0
 1261 0000 70B5     		push	{r4, r5, r6, lr}
 1262 0002 0400     		movs	r4, r0
 1263 0004 0D00     		movs	r5, r1
 1264 0006 0228     		cmp	r0, #2
 1265 0008 11D8     		bhi	.L222
 1266              	.L220:
 1267 000a 0C4B     		ldr	r3, .L223
 1268 000c E000     		lsls	r0, r4, #3
 1269 000e 1B68     		ldr	r3, [r3]
 1270 0010 421C     		adds	r2, r0, #1
 1271 0012 D340     		lsrs	r3, r3, r2
 1272 0014 DB07     		lsls	r3, r3, #31
 1273 0016 09D4     		bmi	.L219
 1274 0018 0321     		movs	r1, #3
 1275 001a 0C00     		movs	r4, r1
 1276 001c 0D40     		ands	r5, r1
 1277 001e 8440     		lsls	r4, r4, r0
 1278 0020 8540     		lsls	r5, r5, r0
 1279 0022 074A     		ldr	r2, .L223+4
 1280 0024 1368     		ldr	r3, [r2]
 1281 0026 A343     		bics	r3, r4
 1282 0028 1D43     		orrs	r5, r3
 1283 002a 1560     		str	r5, [r2]
 1284              	.L219:
 1285              		@ sp needed
 1286 002c 70BD     		pop	{r4, r5, r6, pc}
 1287              	.L222:
 1288 002e 0020     		movs	r0, #0
 1289 0030 FFF7FEFF 		bl	CyHalt
 1290 0034 0020     		movs	r0, #0
 1291 0036 FFF7FEFF 		bl	CyHalt
 1292 003a E6E7     		b	.L220
 1293              	.L224:
 1294              		.align	2
 1295              	.L223:
 1296 003c 10020B40 		.word	1074463248
 1297 0040 0C020B40 		.word	1074463244
 1298              		.size	CySysWdtSetMode, .-CySysWdtSetMode
 1299              		.section	.text.CySysWdtGetMode,"ax",%progbits
 1300              		.align	2
 1301              		.global	CySysWdtGetMode
 1302              		.code	16
 1303              		.thumb_func
 1304              		.type	CySysWdtGetMode, %function
 1305              	CySysWdtGetMode:
 1306              		@ args = 0, pretend = 0, frame = 0
 1307              		@ frame_needed = 0, uses_anonymous_args = 0
 1308              		@ link register save eliminated.
 1309 0000 0300     		movs	r3, r0
 1310 0002 034A     		ldr	r2, .L226
 1311 0004 DB00     		lsls	r3, r3, #3
ARM GAS  C:\Users\DMA\AppData\Local\Temp\cckthxUn.s 			page 24


 1312 0006 1068     		ldr	r0, [r2]
 1313              		@ sp needed
 1314 0008 D840     		lsrs	r0, r0, r3
 1315 000a 0323     		movs	r3, #3
 1316 000c 1840     		ands	r0, r3
 1317 000e 7047     		bx	lr
 1318              	.L227:
 1319              		.align	2
 1320              	.L226:
 1321 0010 0C020B40 		.word	1074463244
 1322              		.size	CySysWdtGetMode, .-CySysWdtGetMode
 1323              		.section	.text.CySysWdtSetClearOnMatch,"ax",%progbits
 1324              		.align	2
 1325              		.global	CySysWdtSetClearOnMatch
 1326              		.code	16
 1327              		.thumb_func
 1328              		.type	CySysWdtSetClearOnMatch, %function
 1329              	CySysWdtSetClearOnMatch:
 1330              		@ args = 0, pretend = 0, frame = 0
 1331              		@ frame_needed = 0, uses_anonymous_args = 0
 1332 0000 70B5     		push	{r4, r5, r6, lr}
 1333 0002 0400     		movs	r4, r0
 1334 0004 0D00     		movs	r5, r1
 1335 0006 0128     		cmp	r0, #1
 1336 0008 07D9     		bls	.L230
 1337 000a 0020     		movs	r0, #0
 1338 000c FFF7FEFF 		bl	CyHalt
 1339 0010 022C     		cmp	r4, #2
 1340 0012 02D0     		beq	.L230
 1341 0014 0020     		movs	r0, #0
 1342 0016 FFF7FEFF 		bl	CyHalt
 1343              	.L230:
 1344 001a 094B     		ldr	r3, .L236
 1345 001c E400     		lsls	r4, r4, #3
 1346 001e 1B68     		ldr	r3, [r3]
 1347 0020 621C     		adds	r2, r4, #1
 1348 0022 D340     		lsrs	r3, r3, r2
 1349 0024 0122     		movs	r2, #1
 1350 0026 1A42     		tst	r2, r3
 1351 0028 09D1     		bne	.L228
 1352 002a 0648     		ldr	r0, .L236+4
 1353 002c 0234     		adds	r4, r4, #2
 1354 002e 0168     		ldr	r1, [r0]
 1355 0030 A240     		lsls	r2, r2, r4
 1356 0032 0B00     		movs	r3, r1
 1357 0034 2900     		movs	r1, r5
 1358 0036 A140     		lsls	r1, r1, r4
 1359 0038 9343     		bics	r3, r2
 1360 003a 1943     		orrs	r1, r3
 1361 003c 0160     		str	r1, [r0]
 1362              	.L228:
 1363              		@ sp needed
 1364 003e 70BD     		pop	{r4, r5, r6, pc}
 1365              	.L237:
 1366              		.align	2
 1367              	.L236:
 1368 0040 10020B40 		.word	1074463248
ARM GAS  C:\Users\DMA\AppData\Local\Temp\cckthxUn.s 			page 25


 1369 0044 0C020B40 		.word	1074463244
 1370              		.size	CySysWdtSetClearOnMatch, .-CySysWdtSetClearOnMatch
 1371              		.section	.text.CySysWdtGetClearOnMatch,"ax",%progbits
 1372              		.align	2
 1373              		.global	CySysWdtGetClearOnMatch
 1374              		.code	16
 1375              		.thumb_func
 1376              		.type	CySysWdtGetClearOnMatch, %function
 1377              	CySysWdtGetClearOnMatch:
 1378              		@ args = 0, pretend = 0, frame = 0
 1379              		@ frame_needed = 0, uses_anonymous_args = 0
 1380 0000 10B5     		push	{r4, lr}
 1381 0002 0400     		movs	r4, r0
 1382 0004 0128     		cmp	r0, #1
 1383 0006 02D9     		bls	.L239
 1384 0008 0020     		movs	r0, #0
 1385 000a FFF7FEFF 		bl	CyHalt
 1386              	.L239:
 1387 000e 044B     		ldr	r3, .L240
 1388 0010 E400     		lsls	r4, r4, #3
 1389 0012 1868     		ldr	r0, [r3]
 1390 0014 0234     		adds	r4, r4, #2
 1391 0016 E040     		lsrs	r0, r0, r4
 1392 0018 0123     		movs	r3, #1
 1393              		@ sp needed
 1394 001a 1840     		ands	r0, r3
 1395 001c 10BD     		pop	{r4, pc}
 1396              	.L241:
 1397 001e C046     		.align	2
 1398              	.L240:
 1399 0020 0C020B40 		.word	1074463244
 1400              		.size	CySysWdtGetClearOnMatch, .-CySysWdtGetClearOnMatch
 1401              		.section	.text.CySysWdtEnable,"ax",%progbits
 1402              		.align	2
 1403              		.global	CySysWdtEnable
 1404              		.code	16
 1405              		.thumb_func
 1406              		.type	CySysWdtEnable, %function
 1407              	CySysWdtEnable:
 1408              		@ args = 0, pretend = 0, frame = 0
 1409              		@ frame_needed = 0, uses_anonymous_args = 0
 1410              		@ link register save eliminated.
 1411 0000 0D4A     		ldr	r2, .L267
 1412 0002 1368     		ldr	r3, [r2]
 1413 0004 0343     		orrs	r3, r0
 1414 0006 1360     		str	r3, [r2]
 1415 0008 C307     		lsls	r3, r0, #31
 1416 000a 03D5     		bpl	.L243
 1417 000c 0221     		movs	r1, #2
 1418              	.L258:
 1419 000e 1368     		ldr	r3, [r2]
 1420 0010 1942     		tst	r1, r3
 1421 0012 FCD0     		beq	.L258
 1422              	.L243:
 1423 0014 C305     		lsls	r3, r0, #23
 1424 0016 05D5     		bpl	.L245
 1425 0018 8022     		movs	r2, #128
ARM GAS  C:\Users\DMA\AppData\Local\Temp\cckthxUn.s 			page 26


 1426 001a 0749     		ldr	r1, .L267
 1427 001c 9200     		lsls	r2, r2, #2
 1428              	.L259:
 1429 001e 0B68     		ldr	r3, [r1]
 1430 0020 1342     		tst	r3, r2
 1431 0022 FCD0     		beq	.L259
 1432              	.L245:
 1433 0024 C303     		lsls	r3, r0, #15
 1434 0026 05D5     		bpl	.L242
 1435 0028 8022     		movs	r2, #128
 1436 002a 0349     		ldr	r1, .L267
 1437 002c 9202     		lsls	r2, r2, #10
 1438              	.L260:
 1439 002e 0B68     		ldr	r3, [r1]
 1440 0030 1342     		tst	r3, r2
 1441 0032 FCD0     		beq	.L260
 1442              	.L242:
 1443              		@ sp needed
 1444 0034 7047     		bx	lr
 1445              	.L268:
 1446 0036 C046     		.align	2
 1447              	.L267:
 1448 0038 10020B40 		.word	1074463248
 1449              		.size	CySysWdtEnable, .-CySysWdtEnable
 1450              		.section	.text.CySysWdtDisable,"ax",%progbits
 1451              		.align	2
 1452              		.global	CySysWdtDisable
 1453              		.code	16
 1454              		.thumb_func
 1455              		.type	CySysWdtDisable, %function
 1456              	CySysWdtDisable:
 1457              		@ args = 0, pretend = 0, frame = 0
 1458              		@ frame_needed = 0, uses_anonymous_args = 0
 1459              		@ link register save eliminated.
 1460 0000 104B     		ldr	r3, .L289
 1461 0002 1A68     		ldr	r2, [r3]
 1462 0004 C023     		movs	r3, #192
 1463 0006 1B02     		lsls	r3, r3, #8
 1464 0008 1A42     		tst	r2, r3
 1465 000a 19D1     		bne	.L269
 1466 000c 0E4A     		ldr	r2, .L289+4
 1467 000e 1368     		ldr	r3, [r2]
 1468 0010 8343     		bics	r3, r0
 1469 0012 1360     		str	r3, [r2]
 1470 0014 C307     		lsls	r3, r0, #31
 1471 0016 03D5     		bpl	.L276
 1472 0018 0221     		movs	r1, #2
 1473              	.L283:
 1474 001a 1368     		ldr	r3, [r2]
 1475 001c 1942     		tst	r1, r3
 1476 001e FCD1     		bne	.L283
 1477              	.L276:
 1478 0020 C305     		lsls	r3, r0, #23
 1479 0022 05D5     		bpl	.L272
 1480 0024 8022     		movs	r2, #128
 1481 0026 0849     		ldr	r1, .L289+4
 1482 0028 9200     		lsls	r2, r2, #2
ARM GAS  C:\Users\DMA\AppData\Local\Temp\cckthxUn.s 			page 27


 1483              	.L282:
 1484 002a 0B68     		ldr	r3, [r1]
 1485 002c 1342     		tst	r3, r2
 1486 002e FCD1     		bne	.L282
 1487              	.L272:
 1488 0030 C303     		lsls	r3, r0, #15
 1489 0032 05D5     		bpl	.L269
 1490 0034 8022     		movs	r2, #128
 1491 0036 0449     		ldr	r1, .L289+4
 1492 0038 9202     		lsls	r2, r2, #10
 1493              	.L281:
 1494 003a 0B68     		ldr	r3, [r1]
 1495 003c 1342     		tst	r3, r2
 1496 003e FCD1     		bne	.L281
 1497              	.L269:
 1498              		@ sp needed
 1499 0040 7047     		bx	lr
 1500              	.L290:
 1501 0042 C046     		.align	2
 1502              	.L289:
 1503 0044 00010B40 		.word	1074462976
 1504 0048 10020B40 		.word	1074463248
 1505              		.size	CySysWdtDisable, .-CySysWdtDisable
 1506              		.section	.text.CySysWdtSetCascade,"ax",%progbits
 1507              		.align	2
 1508              		.global	CySysWdtSetCascade
 1509              		.code	16
 1510              		.thumb_func
 1511              		.type	CySysWdtSetCascade, %function
 1512              	CySysWdtSetCascade:
 1513              		@ args = 0, pretend = 0, frame = 0
 1514              		@ frame_needed = 0, uses_anonymous_args = 0
 1515 0000 094A     		ldr	r2, .L293
 1516 0002 10B5     		push	{r4, lr}
 1517 0004 1168     		ldr	r1, [r2]
 1518 0006 1368     		ldr	r3, [r2]
 1519 0008 1268     		ldr	r2, [r2]
 1520 000a 5C0A     		lsrs	r4, r3, #9
 1521 000c 4B08     		lsrs	r3, r1, #1
 1522 000e 2343     		orrs	r3, r4
 1523 0010 520C     		lsrs	r2, r2, #17
 1524 0012 1343     		orrs	r3, r2
 1525 0014 DB07     		lsls	r3, r3, #31
 1526 0016 05D4     		bmi	.L291
 1527 0018 044A     		ldr	r2, .L293+4
 1528 001a 054B     		ldr	r3, .L293+8
 1529 001c 1168     		ldr	r1, [r2]
 1530 001e 0B40     		ands	r3, r1
 1531 0020 1843     		orrs	r0, r3
 1532 0022 1060     		str	r0, [r2]
 1533              	.L291:
 1534              		@ sp needed
 1535 0024 10BD     		pop	{r4, pc}
 1536              	.L294:
 1537 0026 C046     		.align	2
 1538              	.L293:
 1539 0028 10020B40 		.word	1074463248
ARM GAS  C:\Users\DMA\AppData\Local\Temp\cckthxUn.s 			page 28


 1540 002c 0C020B40 		.word	1074463244
 1541 0030 F7F7FFFF 		.word	-2057
 1542              		.size	CySysWdtSetCascade, .-CySysWdtSetCascade
 1543              		.section	.text.CySysWdtGetCascade,"ax",%progbits
 1544              		.align	2
 1545              		.global	CySysWdtGetCascade
 1546              		.code	16
 1547              		.thumb_func
 1548              		.type	CySysWdtGetCascade, %function
 1549              	CySysWdtGetCascade:
 1550              		@ args = 0, pretend = 0, frame = 0
 1551              		@ frame_needed = 0, uses_anonymous_args = 0
 1552              		@ link register save eliminated.
 1553 0000 024B     		ldr	r3, .L296
 1554              		@ sp needed
 1555 0002 1868     		ldr	r0, [r3]
 1556 0004 024B     		ldr	r3, .L296+4
 1557 0006 1840     		ands	r0, r3
 1558 0008 7047     		bx	lr
 1559              	.L297:
 1560 000a C046     		.align	2
 1561              	.L296:
 1562 000c 0C020B40 		.word	1074463244
 1563 0010 08080000 		.word	2056
 1564              		.size	CySysWdtGetCascade, .-CySysWdtGetCascade
 1565              		.section	.text.CySysWdtSetMatch,"ax",%progbits
 1566              		.align	2
 1567              		.global	CySysWdtSetMatch
 1568              		.code	16
 1569              		.thumb_func
 1570              		.type	CySysWdtSetMatch, %function
 1571              	CySysWdtSetMatch:
 1572              		@ args = 0, pretend = 0, frame = 0
 1573              		@ frame_needed = 0, uses_anonymous_args = 0
 1574 0000 70B5     		push	{r4, r5, r6, lr}
 1575 0002 0500     		movs	r5, r0
 1576 0004 0C00     		movs	r4, r1
 1577 0006 0128     		cmp	r0, #1
 1578 0008 02D9     		bls	.L299
 1579 000a 0020     		movs	r0, #0
 1580 000c FFF7FEFF 		bl	CyHalt
 1581              	.L299:
 1582 0010 0C4B     		ldr	r3, .L306
 1583 0012 C920     		movs	r0, #201
 1584 0014 1B68     		ldr	r3, [r3]
 1585 0016 9B0F     		lsrs	r3, r3, #30
 1586 0018 00D0     		beq	.L300
 1587 001a 6C38     		subs	r0, r0, #108
 1588              	.L300:
 1589 001c FFF7FEFF 		bl	CyDelayUs
 1590 0020 094A     		ldr	r2, .L306+4
 1591 0022 2D01     		lsls	r5, r5, #4
 1592 0024 AA40     		lsls	r2, r2, r5
 1593 0026 AC40     		lsls	r4, r4, r5
 1594 0028 0849     		ldr	r1, .L306+8
 1595 002a 4320     		movs	r0, #67
 1596 002c 0B68     		ldr	r3, [r1]
ARM GAS  C:\Users\DMA\AppData\Local\Temp\cckthxUn.s 			page 29


 1597 002e 9343     		bics	r3, r2
 1598 0030 1C43     		orrs	r4, r3
 1599 0032 044B     		ldr	r3, .L306
 1600 0034 0C60     		str	r4, [r1]
 1601 0036 1B68     		ldr	r3, [r3]
 1602 0038 9B0F     		lsrs	r3, r3, #30
 1603 003a 00D0     		beq	.L301
 1604 003c 2438     		subs	r0, r0, #36
 1605              	.L301:
 1606 003e FFF7FEFF 		bl	CyDelayUs
 1607              		@ sp needed
 1608 0042 70BD     		pop	{r4, r5, r6, pc}
 1609              	.L307:
 1610              		.align	2
 1611              	.L306:
 1612 0044 0C020B40 		.word	1074463244
 1613 0048 FFFF0000 		.word	65535
 1614 004c 08020B40 		.word	1074463240
 1615              		.size	CySysWdtSetMatch, .-CySysWdtSetMatch
 1616              		.section	.text.CySysWdtSetToggleBit,"ax",%progbits
 1617              		.align	2
 1618              		.global	CySysWdtSetToggleBit
 1619              		.code	16
 1620              		.thumb_func
 1621              		.type	CySysWdtSetToggleBit, %function
 1622              	CySysWdtSetToggleBit:
 1623              		@ args = 0, pretend = 0, frame = 0
 1624              		@ frame_needed = 0, uses_anonymous_args = 0
 1625              		@ link register save eliminated.
 1626 0000 074B     		ldr	r3, .L310
 1627 0002 1B68     		ldr	r3, [r3]
 1628 0004 9B03     		lsls	r3, r3, #14
 1629 0006 09D4     		bmi	.L308
 1630 0008 0649     		ldr	r1, .L310+4
 1631 000a 074B     		ldr	r3, .L310+8
 1632 000c 0A68     		ldr	r2, [r1]
 1633 000e 0006     		lsls	r0, r0, #24
 1634 0010 1340     		ands	r3, r2
 1635 0012 F822     		movs	r2, #248
 1636 0014 5205     		lsls	r2, r2, #21
 1637 0016 1040     		ands	r0, r2
 1638 0018 1843     		orrs	r0, r3
 1639 001a 0860     		str	r0, [r1]
 1640              	.L308:
 1641              		@ sp needed
 1642 001c 7047     		bx	lr
 1643              	.L311:
 1644 001e C046     		.align	2
 1645              	.L310:
 1646 0020 10020B40 		.word	1074463248
 1647 0024 0C020B40 		.word	1074463244
 1648 0028 FFFFFFE0 		.word	-520093697
 1649              		.size	CySysWdtSetToggleBit, .-CySysWdtSetToggleBit
 1650              		.section	.text.CySysWdtGetToggleBit,"ax",%progbits
 1651              		.align	2
 1652              		.global	CySysWdtGetToggleBit
 1653              		.code	16
ARM GAS  C:\Users\DMA\AppData\Local\Temp\cckthxUn.s 			page 30


 1654              		.thumb_func
 1655              		.type	CySysWdtGetToggleBit, %function
 1656              	CySysWdtGetToggleBit:
 1657              		@ args = 0, pretend = 0, frame = 0
 1658              		@ frame_needed = 0, uses_anonymous_args = 0
 1659              		@ link register save eliminated.
 1660 0000 024B     		ldr	r3, .L313
 1661              		@ sp needed
 1662 0002 1868     		ldr	r0, [r3]
 1663 0004 C000     		lsls	r0, r0, #3
 1664 0006 C00E     		lsrs	r0, r0, #27
 1665 0008 7047     		bx	lr
 1666              	.L314:
 1667 000a C046     		.align	2
 1668              	.L313:
 1669 000c 0C020B40 		.word	1074463244
 1670              		.size	CySysWdtGetToggleBit, .-CySysWdtGetToggleBit
 1671              		.section	.text.CySysWdtGetMatch,"ax",%progbits
 1672              		.align	2
 1673              		.global	CySysWdtGetMatch
 1674              		.code	16
 1675              		.thumb_func
 1676              		.type	CySysWdtGetMatch, %function
 1677              	CySysWdtGetMatch:
 1678              		@ args = 0, pretend = 0, frame = 0
 1679              		@ frame_needed = 0, uses_anonymous_args = 0
 1680 0000 10B5     		push	{r4, lr}
 1681 0002 0400     		movs	r4, r0
 1682 0004 0128     		cmp	r0, #1
 1683 0006 02D9     		bls	.L316
 1684 0008 0020     		movs	r0, #0
 1685 000a FFF7FEFF 		bl	CyHalt
 1686              	.L316:
 1687 000e 034B     		ldr	r3, .L317
 1688 0010 2401     		lsls	r4, r4, #4
 1689 0012 1868     		ldr	r0, [r3]
 1690              		@ sp needed
 1691 0014 E040     		lsrs	r0, r0, r4
 1692 0016 0004     		lsls	r0, r0, #16
 1693 0018 000C     		lsrs	r0, r0, #16
 1694 001a 10BD     		pop	{r4, pc}
 1695              	.L318:
 1696              		.align	2
 1697              	.L317:
 1698 001c 08020B40 		.word	1074463240
 1699              		.size	CySysWdtGetMatch, .-CySysWdtGetMatch
 1700              		.section	.text.CySysWdtGetCount,"ax",%progbits
 1701              		.align	2
 1702              		.global	CySysWdtGetCount
 1703              		.code	16
 1704              		.thumb_func
 1705              		.type	CySysWdtGetCount, %function
 1706              	CySysWdtGetCount:
 1707              		@ args = 0, pretend = 0, frame = 0
 1708              		@ frame_needed = 0, uses_anonymous_args = 0
 1709 0000 10B5     		push	{r4, lr}
 1710 0002 0128     		cmp	r0, #1
ARM GAS  C:\Users\DMA\AppData\Local\Temp\cckthxUn.s 			page 31


 1711 0004 10D0     		beq	.L321
 1712 0006 0028     		cmp	r0, #0
 1713 0008 09D0     		beq	.L322
 1714 000a 0228     		cmp	r0, #2
 1715 000c 04D0     		beq	.L323
 1716 000e 0020     		movs	r0, #0
 1717 0010 FFF7FEFF 		bl	CyHalt
 1718 0014 0020     		movs	r0, #0
 1719              	.L324:
 1720              		@ sp needed
 1721 0016 10BD     		pop	{r4, pc}
 1722              	.L323:
 1723 0018 054B     		ldr	r3, .L327
 1724 001a 1868     		ldr	r0, [r3]
 1725 001c FBE7     		b	.L324
 1726              	.L322:
 1727 001e 054B     		ldr	r3, .L327+4
 1728 0020 1868     		ldr	r0, [r3]
 1729 0022 0004     		lsls	r0, r0, #16
 1730 0024 000C     		lsrs	r0, r0, #16
 1731 0026 F6E7     		b	.L324
 1732              	.L321:
 1733 0028 024B     		ldr	r3, .L327+4
 1734 002a 1868     		ldr	r0, [r3]
 1735 002c 000C     		lsrs	r0, r0, #16
 1736 002e F2E7     		b	.L324
 1737              	.L328:
 1738              		.align	2
 1739              	.L327:
 1740 0030 04020B40 		.word	1074463236
 1741 0034 00020B40 		.word	1074463232
 1742              		.size	CySysWdtGetCount, .-CySysWdtGetCount
 1743              		.section	.text.CySysWdtGetInterruptSource,"ax",%progbits
 1744              		.align	2
 1745              		.global	CySysWdtGetInterruptSource
 1746              		.code	16
 1747              		.thumb_func
 1748              		.type	CySysWdtGetInterruptSource, %function
 1749              	CySysWdtGetInterruptSource:
 1750              		@ args = 0, pretend = 0, frame = 0
 1751              		@ frame_needed = 0, uses_anonymous_args = 0
 1752              		@ link register save eliminated.
 1753 0000 024B     		ldr	r3, .L330
 1754              		@ sp needed
 1755 0002 1868     		ldr	r0, [r3]
 1756 0004 024B     		ldr	r3, .L330+4
 1757 0006 1840     		ands	r0, r3
 1758 0008 7047     		bx	lr
 1759              	.L331:
 1760 000a C046     		.align	2
 1761              	.L330:
 1762 000c 10020B40 		.word	1074463248
 1763 0010 04040400 		.word	263172
 1764              		.size	CySysWdtGetInterruptSource, .-CySysWdtGetInterruptSource
 1765              		.section	.text.CySysWdtClearInterrupt,"ax",%progbits
 1766              		.align	2
 1767              		.global	CySysWdtClearInterrupt
ARM GAS  C:\Users\DMA\AppData\Local\Temp\cckthxUn.s 			page 32


 1768              		.code	16
 1769              		.thumb_func
 1770              		.type	CySysWdtClearInterrupt, %function
 1771              	CySysWdtClearInterrupt:
 1772              		@ args = 0, pretend = 0, frame = 0
 1773              		@ frame_needed = 0, uses_anonymous_args = 0
 1774 0000 F8B5     		push	{r3, r4, r5, r6, r7, lr}
 1775 0002 C026     		movs	r6, #192
 1776 0004 0700     		movs	r7, r0
 1777 0006 FFF7FEFF 		bl	CyEnterCriticalSection
 1778 000a 1B4C     		ldr	r4, .L337
 1779 000c 3602     		lsls	r6, r6, #8
 1780 000e 2368     		ldr	r3, [r4]
 1781 0010 0500     		movs	r5, r0
 1782 0012 3342     		tst	r3, r6
 1783 0014 25D0     		beq	.L336
 1784 0016 FFF7FEFF 		bl	CyEnterCriticalSection
 1785 001a 8021     		movs	r1, #128
 1786 001c 2268     		ldr	r2, [r4]
 1787 001e 174B     		ldr	r3, .L337+4
 1788 0020 C901     		lsls	r1, r1, #7
 1789 0022 1A40     		ands	r2, r3
 1790 0024 0A43     		orrs	r2, r1
 1791 0026 2260     		str	r2, [r4]
 1792 0028 2268     		ldr	r2, [r4]
 1793 002a 1340     		ands	r3, r2
 1794 002c 8022     		movs	r2, #128
 1795 002e 1202     		lsls	r2, r2, #8
 1796 0030 1343     		orrs	r3, r2
 1797 0032 2360     		str	r3, [r4]
 1798 0034 FFF7FEFF 		bl	CyExitCriticalSection
 1799 0038 1148     		ldr	r0, .L337+8
 1800 003a 124A     		ldr	r2, .L337+12
 1801 003c 0740     		ands	r7, r0
 1802 003e 3800     		movs	r0, r7
 1803 0040 1168     		ldr	r1, [r2]
 1804 0042 114B     		ldr	r3, .L337+16
 1805 0044 0B40     		ands	r3, r1
 1806 0046 1843     		orrs	r0, r3
 1807 0048 1060     		str	r0, [r2]
 1808 004a 1368     		ldr	r3, [r2]
 1809 004c FFF7FEFF 		bl	CyEnterCriticalSection
 1810 0050 2368     		ldr	r3, [r4]
 1811 0052 1E43     		orrs	r6, r3
 1812 0054 2660     		str	r6, [r4]
 1813 0056 FFF7FEFF 		bl	CyExitCriticalSection
 1814              	.L334:
 1815 005a 2800     		movs	r0, r5
 1816 005c FFF7FEFF 		bl	CyExitCriticalSection
 1817              		@ sp needed
 1818 0060 F8BD     		pop	{r3, r4, r5, r6, r7, pc}
 1819              	.L336:
 1820 0062 0748     		ldr	r0, .L337+8
 1821 0064 074A     		ldr	r2, .L337+12
 1822 0066 0740     		ands	r7, r0
 1823 0068 3800     		movs	r0, r7
 1824 006a 1168     		ldr	r1, [r2]
ARM GAS  C:\Users\DMA\AppData\Local\Temp\cckthxUn.s 			page 33


 1825 006c 064B     		ldr	r3, .L337+16
 1826 006e 0B40     		ands	r3, r1
 1827 0070 1843     		orrs	r0, r3
 1828 0072 1060     		str	r0, [r2]
 1829 0074 1368     		ldr	r3, [r2]
 1830 0076 F0E7     		b	.L334
 1831              	.L338:
 1832              		.align	2
 1833              	.L337:
 1834 0078 00010B40 		.word	1074462976
 1835 007c FF3FFFFF 		.word	-49153
 1836 0080 04040400 		.word	263172
 1837 0084 10020B40 		.word	1074463248
 1838 0088 FBFBFBFF 		.word	-263173
 1839              		.size	CySysWdtClearInterrupt, .-CySysWdtClearInterrupt
 1840              		.section	.text.CySysWdtResetCounters,"ax",%progbits
 1841              		.align	2
 1842              		.global	CySysWdtResetCounters
 1843              		.code	16
 1844              		.thumb_func
 1845              		.type	CySysWdtResetCounters, %function
 1846              	CySysWdtResetCounters:
 1847              		@ args = 0, pretend = 0, frame = 0
 1848              		@ frame_needed = 0, uses_anonymous_args = 0
 1849              		@ link register save eliminated.
 1850 0000 044A     		ldr	r2, .L342
 1851 0002 0549     		ldr	r1, .L342+4
 1852 0004 1368     		ldr	r3, [r2]
 1853 0006 0840     		ands	r0, r1
 1854 0008 1843     		orrs	r0, r3
 1855 000a 1060     		str	r0, [r2]
 1856              	.L340:
 1857 000c 1368     		ldr	r3, [r2]
 1858 000e 0B42     		tst	r3, r1
 1859 0010 FCD1     		bne	.L340
 1860              		@ sp needed
 1861 0012 7047     		bx	lr
 1862              	.L343:
 1863              		.align	2
 1864              	.L342:
 1865 0014 10020B40 		.word	1074463248
 1866 0018 08080800 		.word	526344
 1867              		.size	CySysWdtResetCounters, .-CySysWdtResetCounters
 1868              		.section	.text.CySysWdtSetInterruptCallback,"ax",%progbits
 1869              		.align	2
 1870              		.global	CySysWdtSetInterruptCallback
 1871              		.code	16
 1872              		.thumb_func
 1873              		.type	CySysWdtSetInterruptCallback, %function
 1874              	CySysWdtSetInterruptCallback:
 1875              		@ args = 0, pretend = 0, frame = 0
 1876              		@ frame_needed = 0, uses_anonymous_args = 0
 1877 0000 10B5     		push	{r4, lr}
 1878 0002 0228     		cmp	r0, #2
 1879 0004 05D8     		bhi	.L345
 1880 0006 054B     		ldr	r3, .L347
 1881 0008 8000     		lsls	r0, r0, #2
ARM GAS  C:\Users\DMA\AppData\Local\Temp\cckthxUn.s 			page 34


 1882 000a 1B18     		adds	r3, r3, r0
 1883 000c 9869     		ldr	r0, [r3, #24]
 1884 000e 9961     		str	r1, [r3, #24]
 1885              	.L346:
 1886              		@ sp needed
 1887 0010 10BD     		pop	{r4, pc}
 1888              	.L345:
 1889 0012 0020     		movs	r0, #0
 1890 0014 FFF7FEFF 		bl	CyHalt
 1891 0018 0020     		movs	r0, #0
 1892 001a F9E7     		b	.L346
 1893              	.L348:
 1894              		.align	2
 1895              	.L347:
 1896 001c 00000000 		.word	.LANCHOR0
 1897              		.size	CySysWdtSetInterruptCallback, .-CySysWdtSetInterruptCallback
 1898              		.section	.text.CySysWdtGetInterruptCallback,"ax",%progbits
 1899              		.align	2
 1900              		.global	CySysWdtGetInterruptCallback
 1901              		.code	16
 1902              		.thumb_func
 1903              		.type	CySysWdtGetInterruptCallback, %function
 1904              	CySysWdtGetInterruptCallback:
 1905              		@ args = 0, pretend = 0, frame = 0
 1906              		@ frame_needed = 0, uses_anonymous_args = 0
 1907 0000 10B5     		push	{r4, lr}
 1908 0002 0228     		cmp	r0, #2
 1909 0004 04D8     		bhi	.L350
 1910 0006 054B     		ldr	r3, .L352
 1911 0008 8000     		lsls	r0, r0, #2
 1912 000a 1818     		adds	r0, r3, r0
 1913 000c 8069     		ldr	r0, [r0, #24]
 1914              	.L351:
 1915              		@ sp needed
 1916 000e 10BD     		pop	{r4, pc}
 1917              	.L350:
 1918 0010 0020     		movs	r0, #0
 1919 0012 FFF7FEFF 		bl	CyHalt
 1920 0016 0020     		movs	r0, #0
 1921 0018 F9E7     		b	.L351
 1922              	.L353:
 1923 001a C046     		.align	2
 1924              	.L352:
 1925 001c 00000000 		.word	.LANCHOR0
 1926              		.size	CySysWdtGetInterruptCallback, .-CySysWdtGetInterruptCallback
 1927              		.section	.text.CySysWdtEnableCounterIsr,"ax",%progbits
 1928              		.align	2
 1929              		.global	CySysWdtEnableCounterIsr
 1930              		.code	16
 1931              		.thumb_func
 1932              		.type	CySysWdtEnableCounterIsr, %function
 1933              	CySysWdtEnableCounterIsr:
 1934              		@ args = 0, pretend = 0, frame = 0
 1935              		@ frame_needed = 0, uses_anonymous_args = 0
 1936 0000 10B5     		push	{r4, lr}
 1937 0002 0228     		cmp	r0, #2
 1938 0004 0BD8     		bhi	.L355
ARM GAS  C:\Users\DMA\AppData\Local\Temp\cckthxUn.s 			page 35


 1939 0006 084B     		ldr	r3, .L357
 1940 0008 8000     		lsls	r0, r0, #2
 1941 000a C158     		ldr	r1, [r0, r3]
 1942 000c 074B     		ldr	r3, .L357+4
 1943 000e 5A6A     		ldr	r2, [r3, #36]
 1944 0010 8A43     		bics	r2, r1
 1945 0012 5A62     		str	r2, [r3, #36]
 1946 0014 064A     		ldr	r2, .L357+8
 1947 0016 5368     		ldr	r3, [r2, #4]
 1948 0018 0B43     		orrs	r3, r1
 1949 001a 5360     		str	r3, [r2, #4]
 1950              	.L354:
 1951              		@ sp needed
 1952 001c 10BD     		pop	{r4, pc}
 1953              	.L355:
 1954 001e 0020     		movs	r0, #0
 1955 0020 FFF7FEFF 		bl	CyHalt
 1956 0024 FAE7     		b	.L354
 1957              	.L358:
 1958 0026 C046     		.align	2
 1959              	.L357:
 1960 0028 00000000 		.word	.LANCHOR2
 1961 002c 00000000 		.word	.LANCHOR0
 1962 0030 00000000 		.word	.LANCHOR1
 1963              		.size	CySysWdtEnableCounterIsr, .-CySysWdtEnableCounterIsr
 1964              		.section	.text.CySysWdtDisableCounterIsr,"ax",%progbits
 1965              		.align	2
 1966              		.global	CySysWdtDisableCounterIsr
 1967              		.code	16
 1968              		.thumb_func
 1969              		.type	CySysWdtDisableCounterIsr, %function
 1970              	CySysWdtDisableCounterIsr:
 1971              		@ args = 0, pretend = 0, frame = 0
 1972              		@ frame_needed = 0, uses_anonymous_args = 0
 1973 0000 10B5     		push	{r4, lr}
 1974 0002 0228     		cmp	r0, #2
 1975 0004 07D8     		bhi	.L360
 1976 0006 064A     		ldr	r2, .L362
 1977 0008 0649     		ldr	r1, .L362+4
 1978 000a 8000     		lsls	r0, r0, #2
 1979 000c 5368     		ldr	r3, [r2, #4]
 1980 000e 4158     		ldr	r1, [r0, r1]
 1981 0010 8B43     		bics	r3, r1
 1982 0012 5360     		str	r3, [r2, #4]
 1983              	.L359:
 1984              		@ sp needed
 1985 0014 10BD     		pop	{r4, pc}
 1986              	.L360:
 1987 0016 0020     		movs	r0, #0
 1988 0018 FFF7FEFF 		bl	CyHalt
 1989 001c FAE7     		b	.L359
 1990              	.L363:
 1991 001e C046     		.align	2
 1992              	.L362:
 1993 0020 00000000 		.word	.LANCHOR1
 1994 0024 00000000 		.word	.LANCHOR2
 1995              		.size	CySysWdtDisableCounterIsr, .-CySysWdtDisableCounterIsr
ARM GAS  C:\Users\DMA\AppData\Local\Temp\cckthxUn.s 			page 36


 1996              		.section	.text.CySysWdtIsr,"ax",%progbits
 1997              		.align	2
 1998              		.global	CySysWdtIsr
 1999              		.code	16
 2000              		.thumb_func
 2001              		.type	CySysWdtIsr, %function
 2002              	CySysWdtIsr:
 2003              		@ args = 0, pretend = 0, frame = 0
 2004              		@ frame_needed = 0, uses_anonymous_args = 0
 2005 0000 714B     		ldr	r3, .L402
 2006 0002 70B5     		push	{r4, r5, r6, lr}
 2007 0004 1A68     		ldr	r2, [r3]
 2008 0006 0423     		movs	r3, #4
 2009 0008 1342     		tst	r3, r2
 2010 000a 25D0     		beq	.L365
 2011 000c 6F4A     		ldr	r2, .L402+4
 2012 000e 5168     		ldr	r1, [r2, #4]
 2013 0010 0B42     		tst	r3, r1
 2014 0012 0CD0     		beq	.L367
 2015 0014 6E49     		ldr	r1, .L402+8
 2016 0016 4C6A     		ldr	r4, [r1, #36]
 2017 0018 5068     		ldr	r0, [r2, #4]
 2018 001a 1C40     		ands	r4, r3
 2019 001c A043     		bics	r0, r4
 2020 001e 5060     		str	r0, [r2, #4]
 2021 0020 4A6A     		ldr	r2, [r1, #36]
 2022 0022 9A43     		bics	r2, r3
 2023 0024 8B69     		ldr	r3, [r1, #24]
 2024 0026 4A62     		str	r2, [r1, #36]
 2025 0028 002B     		cmp	r3, #0
 2026 002a 00D0     		beq	.L367
 2027 002c 9847     		blx	r3
 2028              	.L367:
 2029 002e C025     		movs	r5, #192
 2030 0030 FFF7FEFF 		bl	CyEnterCriticalSection
 2031 0034 674C     		ldr	r4, .L402+12
 2032 0036 2D02     		lsls	r5, r5, #8
 2033 0038 2368     		ldr	r3, [r4]
 2034 003a 0600     		movs	r6, r0
 2035 003c 2B42     		tst	r3, r5
 2036 003e 00D0     		beq	.LCB2244
 2037 0040 A0E0     		b	.L369	@long jump
 2038              	.LCB2244:
 2039 0042 614B     		ldr	r3, .L402
 2040 0044 644A     		ldr	r2, .L402+16
 2041 0046 1968     		ldr	r1, [r3]
 2042 0048 0A40     		ands	r2, r1
 2043 004a 0421     		movs	r1, #4
 2044 004c 0A43     		orrs	r2, r1
 2045 004e 1A60     		str	r2, [r3]
 2046 0050 1B68     		ldr	r3, [r3]
 2047              	.L378:
 2048 0052 3000     		movs	r0, r6
 2049 0054 FFF7FEFF 		bl	CyExitCriticalSection
 2050              	.L365:
 2051 0058 5B4B     		ldr	r3, .L402
 2052 005a 1A68     		ldr	r2, [r3]
ARM GAS  C:\Users\DMA\AppData\Local\Temp\cckthxUn.s 			page 37


 2053 005c 8023     		movs	r3, #128
 2054 005e DB00     		lsls	r3, r3, #3
 2055 0060 1A42     		tst	r2, r3
 2056 0062 26D0     		beq	.L370
 2057 0064 594A     		ldr	r2, .L402+4
 2058 0066 5168     		ldr	r1, [r2, #4]
 2059 0068 1942     		tst	r1, r3
 2060 006a 0DD0     		beq	.L372
 2061 006c 5849     		ldr	r1, .L402+8
 2062 006e 4C6A     		ldr	r4, [r1, #36]
 2063 0070 5068     		ldr	r0, [r2, #4]
 2064 0072 2340     		ands	r3, r4
 2065 0074 9843     		bics	r0, r3
 2066 0076 5060     		str	r0, [r2, #4]
 2067 0078 4A6A     		ldr	r2, [r1, #36]
 2068 007a 584B     		ldr	r3, .L402+20
 2069 007c 1340     		ands	r3, r2
 2070 007e 4B62     		str	r3, [r1, #36]
 2071 0080 CB69     		ldr	r3, [r1, #28]
 2072 0082 002B     		cmp	r3, #0
 2073 0084 00D0     		beq	.L372
 2074 0086 9847     		blx	r3
 2075              	.L372:
 2076 0088 C026     		movs	r6, #192
 2077 008a FFF7FEFF 		bl	CyEnterCriticalSection
 2078 008e 514C     		ldr	r4, .L402+12
 2079 0090 3602     		lsls	r6, r6, #8
 2080 0092 2368     		ldr	r3, [r4]
 2081 0094 0500     		movs	r5, r0
 2082 0096 3342     		tst	r3, r6
 2083 0098 52D1     		bne	.L374
 2084 009a 4B4A     		ldr	r2, .L402
 2085 009c 4E4B     		ldr	r3, .L402+16
 2086 009e 1168     		ldr	r1, [r2]
 2087 00a0 0B40     		ands	r3, r1
 2088 00a2 8021     		movs	r1, #128
 2089 00a4 C900     		lsls	r1, r1, #3
 2090 00a6 0B43     		orrs	r3, r1
 2091 00a8 1360     		str	r3, [r2]
 2092 00aa 1368     		ldr	r3, [r2]
 2093              	.L379:
 2094 00ac 2800     		movs	r0, r5
 2095 00ae FFF7FEFF 		bl	CyExitCriticalSection
 2096              	.L370:
 2097 00b2 454B     		ldr	r3, .L402
 2098 00b4 1A68     		ldr	r2, [r3]
 2099 00b6 8023     		movs	r3, #128
 2100 00b8 DB02     		lsls	r3, r3, #11
 2101 00ba 1A42     		tst	r2, r3
 2102 00bc 1DD0     		beq	.L364
 2103 00be 434A     		ldr	r2, .L402+4
 2104 00c0 5268     		ldr	r2, [r2, #4]
 2105 00c2 1A42     		tst	r2, r3
 2106 00c4 04D0     		beq	.L376
 2107 00c6 424B     		ldr	r3, .L402+8
 2108 00c8 1B6A     		ldr	r3, [r3, #32]
 2109 00ca 002B     		cmp	r3, #0
ARM GAS  C:\Users\DMA\AppData\Local\Temp\cckthxUn.s 			page 38


 2110 00cc 00D0     		beq	.L376
 2111 00ce 9847     		blx	r3
 2112              	.L376:
 2113 00d0 C026     		movs	r6, #192
 2114 00d2 FFF7FEFF 		bl	CyEnterCriticalSection
 2115 00d6 3F4C     		ldr	r4, .L402+12
 2116 00d8 3602     		lsls	r6, r6, #8
 2117 00da 2368     		ldr	r3, [r4]
 2118 00dc 0500     		movs	r5, r0
 2119 00de 3342     		tst	r3, r6
 2120 00e0 0CD1     		bne	.L377
 2121 00e2 394A     		ldr	r2, .L402
 2122 00e4 3C4B     		ldr	r3, .L402+16
 2123 00e6 1168     		ldr	r1, [r2]
 2124 00e8 0B40     		ands	r3, r1
 2125 00ea 8021     		movs	r1, #128
 2126 00ec C902     		lsls	r1, r1, #11
 2127 00ee 0B43     		orrs	r3, r1
 2128 00f0 1360     		str	r3, [r2]
 2129 00f2 1368     		ldr	r3, [r2]
 2130              	.L380:
 2131 00f4 2800     		movs	r0, r5
 2132 00f6 FFF7FEFF 		bl	CyExitCriticalSection
 2133              	.L364:
 2134              		@ sp needed
 2135 00fa 70BD     		pop	{r4, r5, r6, pc}
 2136              	.L377:
 2137 00fc FFF7FEFF 		bl	CyEnterCriticalSection
 2138 0100 8021     		movs	r1, #128
 2139 0102 2268     		ldr	r2, [r4]
 2140 0104 364B     		ldr	r3, .L402+24
 2141 0106 C901     		lsls	r1, r1, #7
 2142 0108 1A40     		ands	r2, r3
 2143 010a 0A43     		orrs	r2, r1
 2144 010c 2260     		str	r2, [r4]
 2145 010e 2268     		ldr	r2, [r4]
 2146 0110 1340     		ands	r3, r2
 2147 0112 8022     		movs	r2, #128
 2148 0114 1202     		lsls	r2, r2, #8
 2149 0116 1343     		orrs	r3, r2
 2150 0118 2360     		str	r3, [r4]
 2151 011a FFF7FEFF 		bl	CyExitCriticalSection
 2152 011e 2A4A     		ldr	r2, .L402
 2153 0120 2D4B     		ldr	r3, .L402+16
 2154 0122 1168     		ldr	r1, [r2]
 2155 0124 0B40     		ands	r3, r1
 2156 0126 8021     		movs	r1, #128
 2157 0128 C902     		lsls	r1, r1, #11
 2158 012a 0B43     		orrs	r3, r1
 2159 012c 1360     		str	r3, [r2]
 2160 012e 1368     		ldr	r3, [r2]
 2161 0130 FFF7FEFF 		bl	CyEnterCriticalSection
 2162 0134 2368     		ldr	r3, [r4]
 2163 0136 1E43     		orrs	r6, r3
 2164 0138 2660     		str	r6, [r4]
 2165 013a FFF7FEFF 		bl	CyExitCriticalSection
 2166 013e D9E7     		b	.L380
ARM GAS  C:\Users\DMA\AppData\Local\Temp\cckthxUn.s 			page 39


 2167              	.L374:
 2168 0140 FFF7FEFF 		bl	CyEnterCriticalSection
 2169 0144 8021     		movs	r1, #128
 2170 0146 2268     		ldr	r2, [r4]
 2171 0148 254B     		ldr	r3, .L402+24
 2172 014a C901     		lsls	r1, r1, #7
 2173 014c 1A40     		ands	r2, r3
 2174 014e 0A43     		orrs	r2, r1
 2175 0150 2260     		str	r2, [r4]
 2176 0152 2268     		ldr	r2, [r4]
 2177 0154 1340     		ands	r3, r2
 2178 0156 8022     		movs	r2, #128
 2179 0158 1202     		lsls	r2, r2, #8
 2180 015a 1343     		orrs	r3, r2
 2181 015c 2360     		str	r3, [r4]
 2182 015e FFF7FEFF 		bl	CyExitCriticalSection
 2183 0162 194A     		ldr	r2, .L402
 2184 0164 1C4B     		ldr	r3, .L402+16
 2185 0166 1168     		ldr	r1, [r2]
 2186 0168 0B40     		ands	r3, r1
 2187 016a 8021     		movs	r1, #128
 2188 016c C900     		lsls	r1, r1, #3
 2189 016e 0B43     		orrs	r3, r1
 2190 0170 1360     		str	r3, [r2]
 2191 0172 1368     		ldr	r3, [r2]
 2192 0174 FFF7FEFF 		bl	CyEnterCriticalSection
 2193 0178 2368     		ldr	r3, [r4]
 2194 017a 1E43     		orrs	r6, r3
 2195 017c 2660     		str	r6, [r4]
 2196 017e FFF7FEFF 		bl	CyExitCriticalSection
 2197 0182 93E7     		b	.L379
 2198              	.L369:
 2199 0184 FFF7FEFF 		bl	CyEnterCriticalSection
 2200 0188 8021     		movs	r1, #128
 2201 018a 2268     		ldr	r2, [r4]
 2202 018c 144B     		ldr	r3, .L402+24
 2203 018e C901     		lsls	r1, r1, #7
 2204 0190 1A40     		ands	r2, r3
 2205 0192 0A43     		orrs	r2, r1
 2206 0194 2260     		str	r2, [r4]
 2207 0196 2268     		ldr	r2, [r4]
 2208 0198 1340     		ands	r3, r2
 2209 019a 8022     		movs	r2, #128
 2210 019c 1202     		lsls	r2, r2, #8
 2211 019e 1343     		orrs	r3, r2
 2212 01a0 2360     		str	r3, [r4]
 2213 01a2 FFF7FEFF 		bl	CyExitCriticalSection
 2214 01a6 084B     		ldr	r3, .L402
 2215 01a8 0B4A     		ldr	r2, .L402+16
 2216 01aa 1968     		ldr	r1, [r3]
 2217 01ac 0A40     		ands	r2, r1
 2218 01ae 0421     		movs	r1, #4
 2219 01b0 0A43     		orrs	r2, r1
 2220 01b2 1A60     		str	r2, [r3]
 2221 01b4 1B68     		ldr	r3, [r3]
 2222 01b6 FFF7FEFF 		bl	CyEnterCriticalSection
 2223 01ba 2368     		ldr	r3, [r4]
ARM GAS  C:\Users\DMA\AppData\Local\Temp\cckthxUn.s 			page 40


 2224 01bc 1D43     		orrs	r5, r3
 2225 01be 2560     		str	r5, [r4]
 2226 01c0 FFF7FEFF 		bl	CyExitCriticalSection
 2227 01c4 45E7     		b	.L378
 2228              	.L403:
 2229 01c6 C046     		.align	2
 2230              	.L402:
 2231 01c8 10020B40 		.word	1074463248
 2232 01cc 00000000 		.word	.LANCHOR1
 2233 01d0 00000000 		.word	.LANCHOR0
 2234 01d4 00010B40 		.word	1074462976
 2235 01d8 FBFBFBFF 		.word	-263173
 2236 01dc FFFBFFFF 		.word	-1025
 2237 01e0 FF3FFFFF 		.word	-49153
 2238              		.size	CySysWdtIsr, .-CySysWdtIsr
 2239              		.section	.text.CySysWatchdogFeed,"ax",%progbits
 2240              		.align	2
 2241              		.global	CySysWatchdogFeed
 2242              		.code	16
 2243              		.thumb_func
 2244              		.type	CySysWatchdogFeed, %function
 2245              	CySysWatchdogFeed:
 2246              		@ args = 0, pretend = 0, frame = 0
 2247              		@ frame_needed = 0, uses_anonymous_args = 0
 2248 0000 F8B5     		push	{r3, r4, r5, r6, r7, lr}
 2249 0002 0028     		cmp	r0, #0
 2250 0004 0BD1     		bne	.L405
 2251 0006 0322     		movs	r2, #3
 2252 0008 8249     		ldr	r1, .L428
 2253 000a 0B68     		ldr	r3, [r1]
 2254 000c 1340     		ands	r3, r2
 2255 000e 032B     		cmp	r3, #3
 2256 0010 00D1     		bne	.LCB2485
 2257 0012 87E0     		b	.L421	@long jump
 2258              	.LCB2485:
 2259 0014 0B68     		ldr	r3, [r1]
 2260 0016 1340     		ands	r3, r2
 2261 0018 022B     		cmp	r3, #2
 2262 001a 45D0     		beq	.L422
 2263              	.L404:
 2264              		@ sp needed
 2265 001c F8BD     		pop	{r3, r4, r5, r6, r7, pc}
 2266              	.L405:
 2267 001e 0128     		cmp	r0, #1
 2268 0020 FCD1     		bne	.L404
 2269 0022 0322     		movs	r2, #3
 2270 0024 7B49     		ldr	r1, .L428
 2271 0026 0B68     		ldr	r3, [r1]
 2272 0028 1B0A     		lsrs	r3, r3, #8
 2273 002a 1340     		ands	r3, r2
 2274 002c 032B     		cmp	r3, #3
 2275 002e 00D1     		bne	.LCB2509
 2276 0030 B7E0     		b	.L423	@long jump
 2277              	.LCB2509:
 2278 0032 0B68     		ldr	r3, [r1]
 2279 0034 1B0A     		lsrs	r3, r3, #8
 2280 0036 1340     		ands	r3, r2
ARM GAS  C:\Users\DMA\AppData\Local\Temp\cckthxUn.s 			page 41


 2281 0038 022B     		cmp	r3, #2
 2282 003a EFD1     		bne	.L404
 2283 003c 8021     		movs	r1, #128
 2284 003e 764A     		ldr	r2, .L428+4
 2285 0040 0901     		lsls	r1, r1, #4
 2286 0042 1368     		ldr	r3, [r2]
 2287 0044 0B43     		orrs	r3, r1
 2288 0046 7549     		ldr	r1, .L428+8
 2289 0048 1360     		str	r3, [r2]
 2290              	.L413:
 2291 004a 1368     		ldr	r3, [r2]
 2292 004c 724C     		ldr	r4, .L428+4
 2293 004e 0B42     		tst	r3, r1
 2294 0050 FBD1     		bne	.L413
 2295 0052 C027     		movs	r7, #192
 2296 0054 FFF7FEFF 		bl	CyEnterCriticalSection
 2297 0058 714D     		ldr	r5, .L428+12
 2298 005a 3F02     		lsls	r7, r7, #8
 2299 005c 2B68     		ldr	r3, [r5]
 2300 005e 0600     		movs	r6, r0
 2301 0060 3B42     		tst	r3, r7
 2302 0062 00D1     		bne	.LCB2537
 2303 0064 8BE0     		b	.L424	@long jump
 2304              	.LCB2537:
 2305 0066 FFF7FEFF 		bl	CyEnterCriticalSection
 2306 006a 8021     		movs	r1, #128
 2307 006c 2A68     		ldr	r2, [r5]
 2308 006e 6D4B     		ldr	r3, .L428+16
 2309 0070 C901     		lsls	r1, r1, #7
 2310 0072 1A40     		ands	r2, r3
 2311 0074 0A43     		orrs	r2, r1
 2312 0076 2A60     		str	r2, [r5]
 2313 0078 2A68     		ldr	r2, [r5]
 2314 007a 1340     		ands	r3, r2
 2315 007c 8022     		movs	r2, #128
 2316 007e 1202     		lsls	r2, r2, #8
 2317 0080 1343     		orrs	r3, r2
 2318 0082 2B60     		str	r3, [r5]
 2319 0084 FFF7FEFF 		bl	CyExitCriticalSection
 2320 0088 2268     		ldr	r2, [r4]
 2321 008a 674B     		ldr	r3, .L428+20
 2322 008c 1340     		ands	r3, r2
 2323 008e 8022     		movs	r2, #128
 2324 0090 D200     		lsls	r2, r2, #3
 2325 0092 1343     		orrs	r3, r2
 2326 0094 2360     		str	r3, [r4]
 2327 0096 2368     		ldr	r3, [r4]
 2328 0098 FFF7FEFF 		bl	CyEnterCriticalSection
 2329 009c 2B68     		ldr	r3, [r5]
 2330 009e 1F43     		orrs	r7, r3
 2331 00a0 2F60     		str	r7, [r5]
 2332 00a2 FFF7FEFF 		bl	CyExitCriticalSection
 2333 00a6 66E0     		b	.L418
 2334              	.L422:
 2335 00a8 5B4A     		ldr	r2, .L428+4
 2336 00aa 0633     		adds	r3, r3, #6
 2337 00ac 1168     		ldr	r1, [r2]
ARM GAS  C:\Users\DMA\AppData\Local\Temp\cckthxUn.s 			page 42


 2338 00ae 0B43     		orrs	r3, r1
 2339 00b0 5A49     		ldr	r1, .L428+8
 2340 00b2 1360     		str	r3, [r2]
 2341              	.L409:
 2342 00b4 1368     		ldr	r3, [r2]
 2343 00b6 584C     		ldr	r4, .L428+4
 2344 00b8 0B42     		tst	r3, r1
 2345 00ba FBD1     		bne	.L409
 2346 00bc C026     		movs	r6, #192
 2347 00be FFF7FEFF 		bl	CyEnterCriticalSection
 2348 00c2 574D     		ldr	r5, .L428+12
 2349 00c4 3602     		lsls	r6, r6, #8
 2350 00c6 2B68     		ldr	r3, [r5]
 2351 00c8 0700     		movs	r7, r0
 2352 00ca 3342     		tst	r3, r6
 2353 00cc 22D0     		beq	.L425
 2354 00ce FFF7FEFF 		bl	CyEnterCriticalSection
 2355 00d2 8021     		movs	r1, #128
 2356 00d4 2A68     		ldr	r2, [r5]
 2357 00d6 534B     		ldr	r3, .L428+16
 2358 00d8 C901     		lsls	r1, r1, #7
 2359 00da 1A40     		ands	r2, r3
 2360 00dc 0A43     		orrs	r2, r1
 2361 00de 2A60     		str	r2, [r5]
 2362 00e0 2A68     		ldr	r2, [r5]
 2363 00e2 1340     		ands	r3, r2
 2364 00e4 8022     		movs	r2, #128
 2365 00e6 1202     		lsls	r2, r2, #8
 2366 00e8 1343     		orrs	r3, r2
 2367 00ea 2B60     		str	r3, [r5]
 2368 00ec FFF7FEFF 		bl	CyExitCriticalSection
 2369 00f0 2268     		ldr	r2, [r4]
 2370 00f2 4D4B     		ldr	r3, .L428+20
 2371 00f4 1340     		ands	r3, r2
 2372 00f6 0422     		movs	r2, #4
 2373 00f8 1343     		orrs	r3, r2
 2374 00fa 2360     		str	r3, [r4]
 2375 00fc 2368     		ldr	r3, [r4]
 2376 00fe FFF7FEFF 		bl	CyEnterCriticalSection
 2377 0102 2B68     		ldr	r3, [r5]
 2378 0104 1E43     		orrs	r6, r3
 2379 0106 2E60     		str	r6, [r5]
 2380 0108 FFF7FEFF 		bl	CyExitCriticalSection
 2381              	.L416:
 2382 010c 3800     		movs	r0, r7
 2383 010e FFF7FEFF 		bl	CyExitCriticalSection
 2384 0112 83E7     		b	.L404
 2385              	.L425:
 2386 0114 2268     		ldr	r2, [r4]
 2387 0116 444B     		ldr	r3, .L428+20
 2388 0118 1340     		ands	r3, r2
 2389 011a 0422     		movs	r2, #4
 2390 011c 1343     		orrs	r3, r2
 2391 011e 2360     		str	r3, [r4]
 2392 0120 2368     		ldr	r3, [r4]
 2393 0122 F3E7     		b	.L416
 2394              	.L421:
ARM GAS  C:\Users\DMA\AppData\Local\Temp\cckthxUn.s 			page 43


 2395 0124 C025     		movs	r5, #192
 2396 0126 FFF7FEFF 		bl	CyEnterCriticalSection
 2397 012a 3D4C     		ldr	r4, .L428+12
 2398 012c 2D02     		lsls	r5, r5, #8
 2399 012e 2368     		ldr	r3, [r4]
 2400 0130 0600     		movs	r6, r0
 2401 0132 2B42     		tst	r3, r5
 2402 0134 2CD0     		beq	.L426
 2403 0136 FFF7FEFF 		bl	CyEnterCriticalSection
 2404 013a 8021     		movs	r1, #128
 2405 013c 2268     		ldr	r2, [r4]
 2406 013e 394B     		ldr	r3, .L428+16
 2407 0140 C901     		lsls	r1, r1, #7
 2408 0142 1A40     		ands	r2, r3
 2409 0144 0A43     		orrs	r2, r1
 2410 0146 2260     		str	r2, [r4]
 2411 0148 2268     		ldr	r2, [r4]
 2412 014a 1340     		ands	r3, r2
 2413 014c 8022     		movs	r2, #128
 2414 014e 1202     		lsls	r2, r2, #8
 2415 0150 1343     		orrs	r3, r2
 2416 0152 2360     		str	r3, [r4]
 2417 0154 FFF7FEFF 		bl	CyExitCriticalSection
 2418 0158 2F4B     		ldr	r3, .L428+4
 2419 015a 334A     		ldr	r2, .L428+20
 2420 015c 1968     		ldr	r1, [r3]
 2421 015e 0A40     		ands	r2, r1
 2422 0160 0421     		movs	r1, #4
 2423 0162 0A43     		orrs	r2, r1
 2424 0164 1A60     		str	r2, [r3]
 2425 0166 1B68     		ldr	r3, [r3]
 2426 0168 FFF7FEFF 		bl	CyEnterCriticalSection
 2427 016c 2368     		ldr	r3, [r4]
 2428 016e 1D43     		orrs	r5, r3
 2429 0170 2560     		str	r5, [r4]
 2430 0172 FFF7FEFF 		bl	CyExitCriticalSection
 2431              	.L418:
 2432 0176 3000     		movs	r0, r6
 2433 0178 FFF7FEFF 		bl	CyExitCriticalSection
 2434 017c 4EE7     		b	.L404
 2435              	.L424:
 2436 017e 2268     		ldr	r2, [r4]
 2437 0180 294B     		ldr	r3, .L428+20
 2438 0182 1340     		ands	r3, r2
 2439 0184 8022     		movs	r2, #128
 2440 0186 D200     		lsls	r2, r2, #3
 2441 0188 1343     		orrs	r3, r2
 2442 018a 2360     		str	r3, [r4]
 2443 018c 2368     		ldr	r3, [r4]
 2444 018e F2E7     		b	.L418
 2445              	.L426:
 2446 0190 214B     		ldr	r3, .L428+4
 2447 0192 254A     		ldr	r2, .L428+20
 2448 0194 1968     		ldr	r1, [r3]
 2449 0196 0A40     		ands	r2, r1
 2450 0198 0421     		movs	r1, #4
 2451 019a 0A43     		orrs	r2, r1
ARM GAS  C:\Users\DMA\AppData\Local\Temp\cckthxUn.s 			page 44


 2452 019c 1A60     		str	r2, [r3]
 2453 019e 1B68     		ldr	r3, [r3]
 2454 01a0 E9E7     		b	.L418
 2455              	.L423:
 2456 01a2 C026     		movs	r6, #192
 2457 01a4 FFF7FEFF 		bl	CyEnterCriticalSection
 2458 01a8 1D4C     		ldr	r4, .L428+12
 2459 01aa 3602     		lsls	r6, r6, #8
 2460 01ac 2368     		ldr	r3, [r4]
 2461 01ae 0500     		movs	r5, r0
 2462 01b0 3342     		tst	r3, r6
 2463 01b2 24D0     		beq	.L427
 2464 01b4 FFF7FEFF 		bl	CyEnterCriticalSection
 2465 01b8 8021     		movs	r1, #128
 2466 01ba 2268     		ldr	r2, [r4]
 2467 01bc 194B     		ldr	r3, .L428+16
 2468 01be C901     		lsls	r1, r1, #7
 2469 01c0 1A40     		ands	r2, r3
 2470 01c2 0A43     		orrs	r2, r1
 2471 01c4 2260     		str	r2, [r4]
 2472 01c6 2268     		ldr	r2, [r4]
 2473 01c8 1340     		ands	r3, r2
 2474 01ca 8022     		movs	r2, #128
 2475 01cc 1202     		lsls	r2, r2, #8
 2476 01ce 1343     		orrs	r3, r2
 2477 01d0 2360     		str	r3, [r4]
 2478 01d2 FFF7FEFF 		bl	CyExitCriticalSection
 2479 01d6 104A     		ldr	r2, .L428+4
 2480 01d8 134B     		ldr	r3, .L428+20
 2481 01da 1168     		ldr	r1, [r2]
 2482 01dc 0B40     		ands	r3, r1
 2483 01de 8021     		movs	r1, #128
 2484 01e0 C900     		lsls	r1, r1, #3
 2485 01e2 0B43     		orrs	r3, r1
 2486 01e4 1360     		str	r3, [r2]
 2487 01e6 1368     		ldr	r3, [r2]
 2488 01e8 FFF7FEFF 		bl	CyEnterCriticalSection
 2489 01ec 2368     		ldr	r3, [r4]
 2490 01ee 1E43     		orrs	r6, r3
 2491 01f0 2660     		str	r6, [r4]
 2492 01f2 FFF7FEFF 		bl	CyExitCriticalSection
 2493              	.L417:
 2494 01f6 2800     		movs	r0, r5
 2495 01f8 FFF7FEFF 		bl	CyExitCriticalSection
 2496 01fc 0EE7     		b	.L404
 2497              	.L427:
 2498 01fe 064A     		ldr	r2, .L428+4
 2499 0200 094B     		ldr	r3, .L428+20
 2500 0202 1168     		ldr	r1, [r2]
 2501 0204 0B40     		ands	r3, r1
 2502 0206 8021     		movs	r1, #128
 2503 0208 C900     		lsls	r1, r1, #3
 2504 020a 0B43     		orrs	r3, r1
 2505 020c 1360     		str	r3, [r2]
 2506 020e 1368     		ldr	r3, [r2]
 2507 0210 F1E7     		b	.L417
 2508              	.L429:
ARM GAS  C:\Users\DMA\AppData\Local\Temp\cckthxUn.s 			page 45


 2509 0212 C046     		.align	2
 2510              	.L428:
 2511 0214 0C020B40 		.word	1074463244
 2512 0218 10020B40 		.word	1074463248
 2513 021c 08080800 		.word	526344
 2514 0220 00010B40 		.word	1074462976
 2515 0224 FF3FFFFF 		.word	-49153
 2516 0228 FBFBFBFF 		.word	-263173
 2517              		.size	CySysWatchdogFeed, .-CySysWatchdogFeed
 2518              		.section	.text.CySysTimerDelayUntilMatch,"ax",%progbits
 2519              		.align	2
 2520              		.global	CySysTimerDelayUntilMatch
 2521              		.code	16
 2522              		.thumb_func
 2523              		.type	CySysTimerDelayUntilMatch, %function
 2524              	CySysTimerDelayUntilMatch:
 2525              		@ args = 0, pretend = 0, frame = 0
 2526              		@ frame_needed = 0, uses_anonymous_args = 0
 2527 0000 70B5     		push	{r4, r5, r6, lr}
 2528 0002 0400     		movs	r4, r0
 2529 0004 1500     		movs	r5, r2
 2530 0006 0128     		cmp	r0, #1
 2531 0008 03D9     		bls	.L451
 2532              	.L431:
 2533 000a 0020     		movs	r0, #0
 2534 000c FFF7FEFF 		bl	CyHalt
 2535              	.L430:
 2536              		@ sp needed
 2537 0010 70BD     		pop	{r4, r5, r6, pc}
 2538              	.L451:
 2539 0012 2248     		ldr	r0, .L453
 2540 0014 E200     		lsls	r2, r4, #3
 2541 0016 0368     		ldr	r3, [r0]
 2542 0018 0232     		adds	r2, r2, #2
 2543 001a D340     		lsrs	r3, r3, r2
 2544 001c DB07     		lsls	r3, r3, #31
 2545 001e F4D4     		bmi	.L431
 2546 0020 1F4B     		ldr	r3, .L453+4
 2547 0022 9D42     		cmp	r5, r3
 2548 0024 F1D8     		bhi	.L431
 2549 0026 0029     		cmp	r1, #0
 2550 0028 14D1     		bne	.L432
 2551 002a 1E4A     		ldr	r2, .L453+8
 2552              	.L436:
 2553 002c 1368     		ldr	r3, [r2]
 2554 002e 012C     		cmp	r4, #1
 2555 0030 0DD1     		bne	.L452
 2556 0032 1B0C     		lsrs	r3, r3, #16
 2557              	.L435:
 2558 0034 9D42     		cmp	r5, r3
 2559 0036 F9D3     		bcc	.L436
 2560 0038 1A4A     		ldr	r2, .L453+8
 2561 003a 02E0     		b	.L446
 2562              	.L438:
 2563 003c 1B0C     		lsrs	r3, r3, #16
 2564              	.L439:
 2565 003e 9D42     		cmp	r5, r3
ARM GAS  C:\Users\DMA\AppData\Local\Temp\cckthxUn.s 			page 46


 2566 0040 E6D9     		bls	.L430
 2567              	.L446:
 2568 0042 1368     		ldr	r3, [r2]
 2569 0044 012C     		cmp	r4, #1
 2570 0046 F9D0     		beq	.L438
 2571 0048 1B04     		lsls	r3, r3, #16
 2572 004a 1B0C     		lsrs	r3, r3, #16
 2573 004c F7E7     		b	.L439
 2574              	.L452:
 2575 004e 1B04     		lsls	r3, r3, #16
 2576 0050 1B0C     		lsrs	r3, r3, #16
 2577 0052 EFE7     		b	.L435
 2578              	.L432:
 2579 0054 144B     		ldr	r3, .L453+12
 2580 0056 A200     		lsls	r2, r4, #2
 2581 0058 D658     		ldr	r6, [r2, r3]
 2582 005a 0368     		ldr	r3, [r0]
 2583 005c C920     		movs	r0, #201
 2584 005e 9B0F     		lsrs	r3, r3, #30
 2585 0060 00D0     		beq	.L442
 2586 0062 6C38     		subs	r0, r0, #108
 2587              	.L442:
 2588 0064 FFF7FEFF 		bl	CyDelayUs
 2589 0068 0D4A     		ldr	r2, .L453+4
 2590 006a 2401     		lsls	r4, r4, #4
 2591 006c A240     		lsls	r2, r2, r4
 2592 006e A540     		lsls	r5, r5, r4
 2593 0070 0E49     		ldr	r1, .L453+16
 2594 0072 4320     		movs	r0, #67
 2595 0074 0B68     		ldr	r3, [r1]
 2596 0076 9343     		bics	r3, r2
 2597 0078 1D43     		orrs	r5, r3
 2598 007a 084B     		ldr	r3, .L453
 2599 007c 0D60     		str	r5, [r1]
 2600 007e 1B68     		ldr	r3, [r3]
 2601 0080 9B0F     		lsrs	r3, r3, #30
 2602 0082 00D0     		beq	.L443
 2603 0084 2438     		subs	r0, r0, #36
 2604              	.L443:
 2605 0086 FFF7FEFF 		bl	CyDelayUs
 2606 008a 094A     		ldr	r2, .L453+20
 2607 008c 536A     		ldr	r3, [r2, #36]
 2608 008e 3343     		orrs	r3, r6
 2609 0090 5362     		str	r3, [r2, #36]
 2610 0092 084A     		ldr	r2, .L453+24
 2611 0094 5368     		ldr	r3, [r2, #4]
 2612 0096 3343     		orrs	r3, r6
 2613 0098 5360     		str	r3, [r2, #4]
 2614 009a B9E7     		b	.L430
 2615              	.L454:
 2616              		.align	2
 2617              	.L453:
 2618 009c 0C020B40 		.word	1074463244
 2619 00a0 FFFF0000 		.word	65535
 2620 00a4 00020B40 		.word	1074463232
 2621 00a8 00000000 		.word	.LANCHOR2
 2622 00ac 08020B40 		.word	1074463240
ARM GAS  C:\Users\DMA\AppData\Local\Temp\cckthxUn.s 			page 47


 2623 00b0 00000000 		.word	.LANCHOR0
 2624 00b4 00000000 		.word	.LANCHOR1
 2625              		.size	CySysTimerDelayUntilMatch, .-CySysTimerDelayUntilMatch
 2626              		.section	.text.CySysTimerDelay,"ax",%progbits
 2627              		.align	2
 2628              		.global	CySysTimerDelay
 2629              		.code	16
 2630              		.thumb_func
 2631              		.type	CySysTimerDelay, %function
 2632              	CySysTimerDelay:
 2633              		@ args = 0, pretend = 0, frame = 0
 2634              		@ frame_needed = 0, uses_anonymous_args = 0
 2635 0000 10B5     		push	{r4, lr}
 2636 0002 0128     		cmp	r0, #1
 2637 0004 03D9     		bls	.L461
 2638              	.L456:
 2639 0006 0020     		movs	r0, #0
 2640 0008 FFF7FEFF 		bl	CyHalt
 2641              	.L455:
 2642              		@ sp needed
 2643 000c 10BD     		pop	{r4, pc}
 2644              	.L461:
 2645 000e 0C4B     		ldr	r3, .L463
 2646 0010 C400     		lsls	r4, r0, #3
 2647 0012 1B68     		ldr	r3, [r3]
 2648 0014 0234     		adds	r4, r4, #2
 2649 0016 E340     		lsrs	r3, r3, r4
 2650 0018 DB07     		lsls	r3, r3, #31
 2651 001a F4D4     		bmi	.L456
 2652 001c 094B     		ldr	r3, .L463+4
 2653 001e 9A42     		cmp	r2, r3
 2654 0020 F1D8     		bhi	.L456
 2655 0022 094B     		ldr	r3, .L463+8
 2656 0024 1B68     		ldr	r3, [r3]
 2657 0026 0128     		cmp	r0, #1
 2658 0028 06D1     		bne	.L462
 2659 002a 1B0C     		lsrs	r3, r3, #16
 2660              	.L459:
 2661 002c D218     		adds	r2, r2, r3
 2662 002e 1204     		lsls	r2, r2, #16
 2663 0030 120C     		lsrs	r2, r2, #16
 2664 0032 FFF7FEFF 		bl	CySysTimerDelayUntilMatch
 2665 0036 E9E7     		b	.L455
 2666              	.L462:
 2667 0038 1B04     		lsls	r3, r3, #16
 2668 003a 1B0C     		lsrs	r3, r3, #16
 2669 003c F6E7     		b	.L459
 2670              	.L464:
 2671 003e C046     		.align	2
 2672              	.L463:
 2673 0040 0C020B40 		.word	1074463244
 2674 0044 FFFF0000 		.word	65535
 2675 0048 00020B40 		.word	1074463232
 2676              		.size	CySysTimerDelay, .-CySysTimerDelay
 2677              		.section	.rodata
 2678              		.align	2
 2679              		.set	.LANCHOR2,. + 0
ARM GAS  C:\Users\DMA\AppData\Local\Temp\cckthxUn.s 			page 48


 2680              		.type	counterIntMaskTbl, %object
 2681              		.size	counterIntMaskTbl, 12
 2682              	counterIntMaskTbl:
 2683 0000 04000000 		.word	4
 2684 0004 00040000 		.word	1024
 2685 0008 00000400 		.word	262144
 2686              		.data
 2687              		.align	2
 2688              		.set	.LANCHOR1,. + 0
 2689              		.type	defaultIloTrimRegValue, %object
 2690              		.size	defaultIloTrimRegValue, 2
 2691              	defaultIloTrimRegValue:
 2692 0000 F000     		.short	240
 2693 0002 0000     		.space	2
 2694              		.type	wdtIsrMask, %object
 2695              		.size	wdtIsrMask, 4
 2696              	wdtIsrMask:
 2697 0004 04040400 		.word	263172
 2698              		.bss
 2699              		.align	2
 2700              		.set	.LANCHOR0,. + 0
 2701              		.type	lfclkPosedgeEnabledWdtCounter.5072, %object
 2702              		.size	lfclkPosedgeEnabledWdtCounter.5072, 4
 2703              	lfclkPosedgeEnabledWdtCounter.5072:
 2704 0000 00000000 		.space	4
 2705              		.type	lfclkPosedgeWdtCounter0Enabled, %object
 2706              		.size	lfclkPosedgeWdtCounter0Enabled, 4
 2707              	lfclkPosedgeWdtCounter0Enabled:
 2708 0004 00000000 		.space	4
 2709              		.type	lfclkPosedgeWdtCounter0Mode, %object
 2710              		.size	lfclkPosedgeWdtCounter0Mode, 4
 2711              	lfclkPosedgeWdtCounter0Mode:
 2712 0008 00000000 		.space	4
 2713              		.type	iloTrimTrig.4876, %object
 2714              		.size	iloTrimTrig.4876, 1
 2715              	iloTrimTrig.4876:
 2716 000c 00       		.space	1
 2717 000d 000000   		.space	3
 2718              		.type	compensateRunningStatus.4886, %object
 2719              		.size	compensateRunningStatus.4886, 4
 2720              	compensateRunningStatus.4886:
 2721 0010 00000000 		.space	4
 2722              		.type	trimRunningStatus.4898, %object
 2723              		.size	trimRunningStatus.4898, 4
 2724              	trimRunningStatus.4898:
 2725 0014 00000000 		.space	4
 2726              		.type	cySysWdtCallback, %object
 2727              		.size	cySysWdtCallback, 12
 2728              	cySysWdtCallback:
 2729 0018 00000000 		.space	12
 2729      00000000 
 2729      00000000 
 2730              		.type	disableServicedIsr, %object
 2731              		.size	disableServicedIsr, 4
 2732              	disableServicedIsr:
 2733 0024 00000000 		.space	4
 2734              		.ident	"GCC: (GNU Tools for ARM Embedded Processors) 5.4.1 20160609 (release) [ARM/embedded-5-bran
ARM GAS  C:\Users\DMA\AppData\Local\Temp\cckthxUn.s 			page 49


