ARM GAS  C:\Users\DMA\AppData\Local\Temp\ccnfE8PE.s 			page 1


   1              		.syntax unified
   2              		.cpu cortex-m0
   3              		.fpu softvfp
   4              		.eabi_attribute 20, 1
   5              		.eabi_attribute 21, 1
   6              		.eabi_attribute 23, 3
   7              		.eabi_attribute 24, 1
   8              		.eabi_attribute 25, 1
   9              		.eabi_attribute 26, 1
  10              		.eabi_attribute 30, 2
  11              		.eabi_attribute 34, 0
  12              		.eabi_attribute 18, 4
  13              		.thumb
  14              		.syntax unified
  15              		.file	"SCB.c"
  16              		.section	.text.SCB_Init,"ax",%progbits
  17              		.align	2
  18              		.global	SCB_Init
  19              		.code	16
  20              		.thumb_func
  21              		.type	SCB_Init, %function
  22              	SCB_Init:
  23              		@ args = 0, pretend = 0, frame = 0
  24              		@ frame_needed = 0, uses_anonymous_args = 0
  25 0000 10B5     		push	{r4, lr}
  26 0002 FFF7FEFF 		bl	SCB_I2CInit
  27              		@ sp needed
  28 0006 10BD     		pop	{r4, pc}
  29              		.size	SCB_Init, .-SCB_Init
  30              		.section	.text.SCB_Enable,"ax",%progbits
  31              		.align	2
  32              		.global	SCB_Enable
  33              		.code	16
  34              		.thumb_func
  35              		.type	SCB_Enable, %function
  36              	SCB_Enable:
  37              		@ args = 0, pretend = 0, frame = 0
  38              		@ frame_needed = 0, uses_anonymous_args = 0
  39 0000 8021     		movs	r1, #128
  40 0002 054A     		ldr	r2, .L3
  41 0004 10B5     		push	{r4, lr}
  42 0006 1368     		ldr	r3, [r2]
  43 0008 0906     		lsls	r1, r1, #24
  44 000a 0B43     		orrs	r3, r1
  45 000c 1360     		str	r3, [r2]
  46 000e 0A20     		movs	r0, #10
  47 0010 FFF7FEFF 		bl	CyIntEnable
  48              		@ sp needed
  49 0014 10BD     		pop	{r4, pc}
  50              	.L4:
  51 0016 C046     		.align	2
  52              	.L3:
  53 0018 00002540 		.word	1076166656
  54              		.size	SCB_Enable, .-SCB_Enable
  55              		.section	.text.SCB_Start,"ax",%progbits
  56              		.align	2
  57              		.global	SCB_Start
ARM GAS  C:\Users\DMA\AppData\Local\Temp\ccnfE8PE.s 			page 2


  58              		.code	16
  59              		.thumb_func
  60              		.type	SCB_Start, %function
  61              	SCB_Start:
  62              		@ args = 0, pretend = 0, frame = 0
  63              		@ frame_needed = 0, uses_anonymous_args = 0
  64 0000 10B5     		push	{r4, lr}
  65 0002 094C     		ldr	r4, .L8
  66 0004 2378     		ldrb	r3, [r4]
  67 0006 002B     		cmp	r3, #0
  68 0008 03D1     		bne	.L6
  69 000a FFF7FEFF 		bl	SCB_I2CInit
  70 000e 0123     		movs	r3, #1
  71 0010 2370     		strb	r3, [r4]
  72              	.L6:
  73 0012 8021     		movs	r1, #128
  74 0014 054A     		ldr	r2, .L8+4
  75 0016 0906     		lsls	r1, r1, #24
  76 0018 1368     		ldr	r3, [r2]
  77 001a 0A20     		movs	r0, #10
  78 001c 0B43     		orrs	r3, r1
  79 001e 1360     		str	r3, [r2]
  80 0020 FFF7FEFF 		bl	CyIntEnable
  81              		@ sp needed
  82 0024 10BD     		pop	{r4, pc}
  83              	.L9:
  84 0026 C046     		.align	2
  85              	.L8:
  86 0028 00000000 		.word	.LANCHOR0
  87 002c 00002540 		.word	1076166656
  88              		.size	SCB_Start, .-SCB_Start
  89              		.section	.text.SCB_Stop,"ax",%progbits
  90              		.align	2
  91              		.global	SCB_Stop
  92              		.code	16
  93              		.thumb_func
  94              		.type	SCB_Stop, %function
  95              	SCB_Stop:
  96              		@ args = 0, pretend = 0, frame = 0
  97              		@ frame_needed = 0, uses_anonymous_args = 0
  98 0000 10B5     		push	{r4, lr}
  99 0002 0A20     		movs	r0, #10
 100 0004 FFF7FEFF 		bl	CyIntDisable
 101 0008 FFF7FEFF 		bl	SCB_I2CStop
 102 000c 054A     		ldr	r2, .L11
 103 000e 0A20     		movs	r0, #10
 104 0010 1368     		ldr	r3, [r2]
 105              		@ sp needed
 106 0012 5B00     		lsls	r3, r3, #1
 107 0014 5B08     		lsrs	r3, r3, #1
 108 0016 1360     		str	r3, [r2]
 109 0018 0022     		movs	r2, #0
 110 001a 034B     		ldr	r3, .L11+4
 111 001c 1A60     		str	r2, [r3]
 112 001e FFF7FEFF 		bl	CyIntClearPending
 113 0022 10BD     		pop	{r4, pc}
 114              	.L12:
ARM GAS  C:\Users\DMA\AppData\Local\Temp\ccnfE8PE.s 			page 3


 115              		.align	2
 116              	.L11:
 117 0024 00002540 		.word	1076166656
 118 0028 880F2540 		.word	1076170632
 119              		.size	SCB_Stop, .-SCB_Stop
 120              		.section	.text.SCB_SetRxFifoLevel,"ax",%progbits
 121              		.align	2
 122              		.global	SCB_SetRxFifoLevel
 123              		.code	16
 124              		.thumb_func
 125              		.type	SCB_SetRxFifoLevel, %function
 126              	SCB_SetRxFifoLevel:
 127              		@ args = 0, pretend = 0, frame = 0
 128              		@ frame_needed = 0, uses_anonymous_args = 0
 129              		@ link register save eliminated.
 130 0000 0F21     		movs	r1, #15
 131 0002 034A     		ldr	r2, .L14
 132 0004 0840     		ands	r0, r1
 133 0006 1368     		ldr	r3, [r2]
 134              		@ sp needed
 135 0008 8B43     		bics	r3, r1
 136 000a 1843     		orrs	r0, r3
 137 000c 1060     		str	r0, [r2]
 138 000e 7047     		bx	lr
 139              	.L15:
 140              		.align	2
 141              	.L14:
 142 0010 04032540 		.word	1076167428
 143              		.size	SCB_SetRxFifoLevel, .-SCB_SetRxFifoLevel
 144              		.section	.text.SCB_SetTxFifoLevel,"ax",%progbits
 145              		.align	2
 146              		.global	SCB_SetTxFifoLevel
 147              		.code	16
 148              		.thumb_func
 149              		.type	SCB_SetTxFifoLevel, %function
 150              	SCB_SetTxFifoLevel:
 151              		@ args = 0, pretend = 0, frame = 0
 152              		@ frame_needed = 0, uses_anonymous_args = 0
 153              		@ link register save eliminated.
 154 0000 0F21     		movs	r1, #15
 155 0002 034A     		ldr	r2, .L17
 156 0004 0840     		ands	r0, r1
 157 0006 1368     		ldr	r3, [r2]
 158              		@ sp needed
 159 0008 8B43     		bics	r3, r1
 160 000a 1843     		orrs	r0, r3
 161 000c 1060     		str	r0, [r2]
 162 000e 7047     		bx	lr
 163              	.L18:
 164              		.align	2
 165              	.L17:
 166 0010 04022540 		.word	1076167172
 167              		.size	SCB_SetTxFifoLevel, .-SCB_SetTxFifoLevel
 168              		.section	.text.SCB_SetCustomInterruptHandler,"ax",%progbits
 169              		.align	2
 170              		.global	SCB_SetCustomInterruptHandler
 171              		.code	16
ARM GAS  C:\Users\DMA\AppData\Local\Temp\ccnfE8PE.s 			page 4


 172              		.thumb_func
 173              		.type	SCB_SetCustomInterruptHandler, %function
 174              	SCB_SetCustomInterruptHandler:
 175              		@ args = 0, pretend = 0, frame = 0
 176              		@ frame_needed = 0, uses_anonymous_args = 0
 177              		@ link register save eliminated.
 178 0000 014B     		ldr	r3, .L20
 179              		@ sp needed
 180 0002 5860     		str	r0, [r3, #4]
 181 0004 7047     		bx	lr
 182              	.L21:
 183 0006 C046     		.align	2
 184              	.L20:
 185 0008 00000000 		.word	.LANCHOR0
 186              		.size	SCB_SetCustomInterruptHandler, .-SCB_SetCustomInterruptHandler
 187              		.global	SCB_customIntrHandler
 188              		.global	SCB_initVar
 189              		.bss
 190              		.align	2
 191              		.set	.LANCHOR0,. + 0
 192              		.type	SCB_initVar, %object
 193              		.size	SCB_initVar, 1
 194              	SCB_initVar:
 195 0000 00       		.space	1
 196 0001 000000   		.space	3
 197              		.type	SCB_customIntrHandler, %object
 198              		.size	SCB_customIntrHandler, 4
 199              	SCB_customIntrHandler:
 200 0004 00000000 		.space	4
 201              		.ident	"GCC: (GNU Tools for ARM Embedded Processors) 5.4.1 20160609 (release) [ARM/embedded-5-bran
