ARM GAS  C:\Users\DMA\AppData\Local\Temp\ccRyffwY.s 			page 1


   1              		.syntax unified
   2              		.cpu cortex-m0
   3              		.fpu softvfp
   4              		.eabi_attribute 20, 1
   5              		.eabi_attribute 21, 1
   6              		.eabi_attribute 23, 3
   7              		.eabi_attribute 24, 1
   8              		.eabi_attribute 25, 1
   9              		.eabi_attribute 26, 1
  10              		.eabi_attribute 30, 2
  11              		.eabi_attribute 34, 0
  12              		.eabi_attribute 18, 4
  13              		.thumb
  14              		.syntax unified
  15              		.file	"SCB_I2C.c"
  16              		.section	.text.SCB_I2CInit,"ax",%progbits
  17              		.align	2
  18              		.global	SCB_I2CInit
  19              		.code	16
  20              		.thumb_func
  21              		.type	SCB_I2CInit, %function
  22              	SCB_I2CInit:
  23              		@ args = 0, pretend = 0, frame = 0
  24              		@ frame_needed = 0, uses_anonymous_args = 0
  25 0000 10B5     		push	{r4, lr}
  26 0002 0024     		movs	r4, #0
  27 0004 184B     		ldr	r3, .L2
  28 0006 194A     		ldr	r2, .L2+4
  29 0008 1C60     		str	r4, [r3]
  30 000a 194B     		ldr	r3, .L2+8
  31 000c 0A20     		movs	r0, #10
  32 000e 1A60     		str	r2, [r3]
  33 0010 184B     		ldr	r3, .L2+12
  34 0012 194A     		ldr	r2, .L2+16
  35              		@ sp needed
  36 0014 1360     		str	r3, [r2]
  37 0016 194A     		ldr	r2, .L2+20
  38 0018 1460     		str	r4, [r2]
  39 001a 194A     		ldr	r2, .L2+24
  40 001c 1460     		str	r4, [r2]
  41 001e 194A     		ldr	r2, .L2+28
  42 0020 1360     		str	r3, [r2]
  43 0022 194B     		ldr	r3, .L2+32
  44 0024 1C60     		str	r4, [r3]
  45 0026 FFF7FEFF 		bl	CyIntDisable
  46 002a 0321     		movs	r1, #3
  47 002c 0A20     		movs	r0, #10
  48 002e FFF7FEFF 		bl	CyIntSetPriority
  49 0032 1649     		ldr	r1, .L2+36
  50 0034 0A20     		movs	r0, #10
  51 0036 FFF7FEFF 		bl	CyIntSetVector
  52 003a 1022     		movs	r2, #16
  53 003c 144B     		ldr	r3, .L2+40
  54 003e 1C60     		str	r4, [r3]
  55 0040 144B     		ldr	r3, .L2+44
  56 0042 1C60     		str	r4, [r3]
  57 0044 144B     		ldr	r3, .L2+48
ARM GAS  C:\Users\DMA\AppData\Local\Temp\ccRyffwY.s 			page 2


  58 0046 1C60     		str	r4, [r3]
  59 0048 144B     		ldr	r3, .L2+52
  60 004a 1C60     		str	r4, [r3]
  61 004c 144B     		ldr	r3, .L2+56
  62 004e 1C60     		str	r4, [r3]
  63 0050 144B     		ldr	r3, .L2+60
  64 0052 1C60     		str	r4, [r3]
  65 0054 144B     		ldr	r3, .L2+64
  66 0056 1A70     		strb	r2, [r3]
  67 0058 144B     		ldr	r3, .L2+68
  68 005a 1C80     		strh	r4, [r3]
  69 005c 144B     		ldr	r3, .L2+72
  70 005e 1C60     		str	r4, [r3]
  71 0060 144B     		ldr	r3, .L2+76
  72 0062 1C60     		str	r4, [r3]
  73 0064 10BD     		pop	{r4, pc}
  74              	.L3:
  75 0066 C046     		.align	2
  76              	.L2:
  77 0068 00002540 		.word	1076166656
  78 006c C7080080 		.word	-2147481401
  79 0070 60002540 		.word	1076166752
  80 0074 07010080 		.word	-2147483385
  81 0078 00032540 		.word	1076167424
  82 007c 04032540 		.word	1076167428
  83 0080 10032540 		.word	1076167440
  84 0084 00022540 		.word	1076167168
  85 0088 04022540 		.word	1076167172
  86 008c 00000000 		.word	SCB_I2C_ISR
  87 0090 C80E2540 		.word	1076170440
  88 0094 880E2540 		.word	1076170376
  89 0098 480F2540 		.word	1076170568
  90 009c 080F2540 		.word	1076170504
  91 00a0 C80F2540 		.word	1076170696
  92 00a4 880F2540 		.word	1076170632
  93 00a8 00000000 		.word	SCB_state
  94 00ac 00000000 		.word	SCB_mstrStatus
  95 00b0 00000000 		.word	SCB_mstrRdBufIndex
  96 00b4 00000000 		.word	SCB_mstrWrBufIndex
  97              		.size	SCB_I2CInit, .-SCB_I2CInit
  98              		.section	.text.SCB_I2CStop,"ax",%progbits
  99              		.align	2
 100              		.global	SCB_I2CStop
 101              		.code	16
 102              		.thumb_func
 103              		.type	SCB_I2CStop, %function
 104              	SCB_I2CStop:
 105              		@ args = 0, pretend = 0, frame = 0
 106              		@ frame_needed = 0, uses_anonymous_args = 0
 107              		@ link register save eliminated.
 108 0000 0023     		movs	r3, #0
 109 0002 044A     		ldr	r2, .L5
 110              		@ sp needed
 111 0004 1360     		str	r3, [r2]
 112 0006 044A     		ldr	r2, .L5+4
 113 0008 1360     		str	r3, [r2]
 114 000a 1022     		movs	r2, #16
ARM GAS  C:\Users\DMA\AppData\Local\Temp\ccRyffwY.s 			page 3


 115 000c 034B     		ldr	r3, .L5+8
 116 000e 1A70     		strb	r2, [r3]
 117 0010 7047     		bx	lr
 118              	.L6:
 119 0012 C046     		.align	2
 120              	.L5:
 121 0014 68002540 		.word	1076166760
 122 0018 6C002540 		.word	1076166764
 123 001c 00000000 		.word	SCB_state
 124              		.size	SCB_I2CStop, .-SCB_I2CStop
 125              		.section	.text.SCB_I2CFwBlockReset,"ax",%progbits
 126              		.align	2
 127              		.global	SCB_I2CFwBlockReset
 128              		.code	16
 129              		.thumb_func
 130              		.type	SCB_I2CFwBlockReset, %function
 131              	SCB_I2CFwBlockReset:
 132              		@ args = 0, pretend = 0, frame = 0
 133              		@ frame_needed = 0, uses_anonymous_args = 0
 134 0000 0E4A     		ldr	r2, .L8
 135 0002 10B5     		push	{r4, lr}
 136 0004 1368     		ldr	r3, [r2]
 137 0006 0E49     		ldr	r1, .L8+4
 138 0008 5B00     		lsls	r3, r3, #1
 139 000a 5B08     		lsrs	r3, r3, #1
 140 000c 1360     		str	r3, [r2]
 141 000e 0023     		movs	r3, #0
 142 0010 0B60     		str	r3, [r1]
 143 0012 0C49     		ldr	r1, .L8+8
 144 0014 0C48     		ldr	r0, .L8+12
 145 0016 0B60     		str	r3, [r1]
 146 0018 0468     		ldr	r4, [r0]
 147 001a 0C49     		ldr	r1, .L8+16
 148              		@ sp needed
 149 001c 2140     		ands	r1, r4
 150 001e 0160     		str	r1, [r0]
 151 0020 0B49     		ldr	r1, .L8+20
 152 0022 0B60     		str	r3, [r1]
 153 0024 0B49     		ldr	r1, .L8+24
 154 0026 0B60     		str	r3, [r1]
 155 0028 1021     		movs	r1, #16
 156 002a 0B4B     		ldr	r3, .L8+28
 157 002c 1970     		strb	r1, [r3]
 158 002e 8021     		movs	r1, #128
 159 0030 1368     		ldr	r3, [r2]
 160 0032 0906     		lsls	r1, r1, #24
 161 0034 0B43     		orrs	r3, r1
 162 0036 1360     		str	r3, [r2]
 163 0038 10BD     		pop	{r4, pc}
 164              	.L9:
 165 003a C046     		.align	2
 166              	.L8:
 167 003c 00002540 		.word	1076166656
 168 0040 68002540 		.word	1076166760
 169 0044 6C002540 		.word	1076166764
 170 0048 60002540 		.word	1076166752
 171 004c FF5CFFFF 		.word	-41729
ARM GAS  C:\Users\DMA\AppData\Local\Temp\ccRyffwY.s 			page 4


 172 0050 880F2540 		.word	1076170632
 173 0054 C80F2540 		.word	1076170696
 174 0058 00000000 		.word	SCB_state
 175              		.size	SCB_I2CFwBlockReset, .-SCB_I2CFwBlockReset
 176              		.comm	SCB_state,1,1
 177              		.ident	"GCC: (GNU Tools for ARM Embedded Processors) 5.4.1 20160609 (release) [ARM/embedded-5-bran
