ARM GAS  C:\Users\DMA\AppData\Local\Temp\cc5tcS2d.s 			page 1


   1              		.syntax unified
   2              		.cpu cortex-m0
   3              		.fpu softvfp
   4              		.eabi_attribute 20, 1
   5              		.eabi_attribute 21, 1
   6              		.eabi_attribute 23, 3
   7              		.eabi_attribute 24, 1
   8              		.eabi_attribute 25, 1
   9              		.eabi_attribute 26, 1
  10              		.eabi_attribute 30, 2
  11              		.eabi_attribute 34, 0
  12              		.eabi_attribute 18, 4
  13              		.thumb
  14              		.syntax unified
  15              		.file	"SCB_I2C_MASTER.c"
  16              		.section	.text.SCB_I2CMasterWriteBuf,"ax",%progbits
  17              		.align	2
  18              		.global	SCB_I2CMasterWriteBuf
  19              		.code	16
  20              		.thumb_func
  21              		.type	SCB_I2CMasterWriteBuf, %function
  22              	SCB_I2CMasterWriteBuf:
  23              		@ args = 0, pretend = 0, frame = 8
  24              		@ frame_needed = 0, uses_anonymous_args = 0
  25 0000 F0B5     		push	{r4, r5, r6, r7, lr}
  26 0002 4646     		mov	r6, r8
  27 0004 4F46     		mov	r7, r9
  28 0006 C0B4     		push	{r6, r7}
  29 0008 0400     		movs	r4, r0
  30 000a 83B0     		sub	sp, sp, #12
  31 000c 0E1E     		subs	r6, r1, #0
  32 000e 9146     		mov	r9, r2
  33 0010 9846     		mov	r8, r3
  34 0012 10D0     		beq	.L9
  35 0014 2D4D     		ldr	r5, .L21
  36 0016 2B78     		ldrb	r3, [r5]
  37 0018 102B     		cmp	r3, #16
  38 001a 4DD0     		beq	.L18
  39 001c 2B78     		ldrb	r3, [r5]
  40 001e 0427     		movs	r7, #4
  41 0020 602B     		cmp	r3, #96
  42 0022 0AD0     		beq	.L19
  43              	.L6:
  44 0024 0A20     		movs	r0, #10
  45 0026 FFF7FEFF 		bl	CyIntEnable
  46 002a 3800     		movs	r0, r7
  47 002c 03B0     		add	sp, sp, #12
  48              		@ sp needed
  49 002e 0CBC     		pop	{r2, r3}
  50 0030 9046     		mov	r8, r2
  51 0032 9946     		mov	r9, r3
  52 0034 F0BD     		pop	{r4, r5, r6, r7, pc}
  53              	.L9:
  54 0036 0427     		movs	r7, #4
  55 0038 F4E7     		b	.L6
  56              	.L19:
  57 003a 0821     		movs	r1, #8
ARM GAS  C:\Users\DMA\AppData\Local\Temp\cc5tcS2d.s 			page 2


  58 003c 244A     		ldr	r2, .L21+4
  59 003e 1388     		ldrh	r3, [r2]
  60 0040 8B43     		bics	r3, r1
  61 0042 1380     		strh	r3, [r2]
  62              	.L4:
  63 0044 2823     		movs	r3, #40
  64 0046 2B70     		strb	r3, [r5]
  65 0048 0023     		movs	r3, #0
  66 004a 2249     		ldr	r1, .L21+8
  67 004c 6400     		lsls	r4, r4, #1
  68 004e 0B60     		str	r3, [r1]
  69 0050 2149     		ldr	r1, .L21+12
  70 0052 2248     		ldr	r0, .L21+16
  71 0054 0B60     		str	r3, [r1]
  72 0056 4946     		mov	r1, r9
  73 0058 214B     		ldr	r3, .L21+20
  74 005a 1960     		str	r1, [r3]
  75 005c 214B     		ldr	r3, .L21+24
  76 005e 6946     		mov	r1, sp
  77 0060 1E60     		str	r6, [r3]
  78 0062 4346     		mov	r3, r8
  79 0064 CB71     		strb	r3, [r1, #7]
  80 0066 C979     		ldrb	r1, [r1, #7]
  81 0068 1F4B     		ldr	r3, .L21+28
  82 006a 1970     		strb	r1, [r3]
  83 006c FF23     		movs	r3, #255
  84 006e 0221     		movs	r1, #2
  85 0070 1C40     		ands	r4, r3
  86 0072 1388     		ldrh	r3, [r2]
  87 0074 8B43     		bics	r3, r1
  88 0076 1380     		strh	r3, [r2]
  89 0078 4023     		movs	r3, #64
  90 007a 1C4A     		ldr	r2, .L21+32
  91 007c 1360     		str	r3, [r2]
  92 007e 1C4A     		ldr	r2, .L21+36
  93 0080 1060     		str	r0, [r2]
  94 0082 1420     		movs	r0, #20
  95 0084 1B4A     		ldr	r2, .L21+40
  96 0086 FF30     		adds	r0, r0, #255
  97 0088 1060     		str	r0, [r2]
  98 008a 1B4A     		ldr	r2, .L21+44
  99 008c 1360     		str	r3, [r2]
 100 008e 4346     		mov	r3, r8
 101 0090 DB07     		lsls	r3, r3, #31
 102 0092 0BD5     		bpl	.L20
 103 0094 194B     		ldr	r3, .L21+48
 104 0096 1A68     		ldr	r2, [r3]
 105 0098 0123     		movs	r3, #1
 106 009a 9206     		lsls	r2, r2, #26
 107 009c 00D5     		bpl	.L5
 108 009e 0833     		adds	r3, r3, #8
 109              	.L5:
 110 00a0 174A     		ldr	r2, .L21+52
 111 00a2 0027     		movs	r7, #0
 112 00a4 1360     		str	r3, [r2]
 113 00a6 174B     		ldr	r3, .L21+56
 114 00a8 1C60     		str	r4, [r3]
ARM GAS  C:\Users\DMA\AppData\Local\Temp\cc5tcS2d.s 			page 3


 115 00aa BBE7     		b	.L6
 116              	.L20:
 117 00ac 154B     		ldr	r3, .L21+56
 118 00ae 0027     		movs	r7, #0
 119 00b0 1C60     		str	r4, [r3]
 120 00b2 134B     		ldr	r3, .L21+52
 121 00b4 1960     		str	r1, [r3]
 122 00b6 B5E7     		b	.L6
 123              	.L18:
 124 00b8 0A20     		movs	r0, #10
 125 00ba FFF7FEFF 		bl	CyIntDisable
 126 00be 0F4B     		ldr	r3, .L21+48
 127 00c0 0827     		movs	r7, #8
 128 00c2 1B68     		ldr	r3, [r3]
 129 00c4 DB07     		lsls	r3, r3, #31
 130 00c6 ADD4     		bmi	.L6
 131 00c8 014A     		ldr	r2, .L21+4
 132 00ca BBE7     		b	.L4
 133              	.L22:
 134              		.align	2
 135              	.L21:
 136 00cc 00000000 		.word	SCB_state
 137 00d0 00000000 		.word	SCB_mstrStatus
 138 00d4 00000000 		.word	SCB_mstrWrBufIndexTmp
 139 00d8 00000000 		.word	SCB_mstrWrBufIndex
 140 00dc 17030000 		.word	791
 141 00e0 00000000 		.word	SCB_mstrWrBufSize
 142 00e4 00000000 		.word	SCB_mstrWrBufPtr
 143 00e8 00000000 		.word	SCB_mstrControl
 144 00ec 800F2540 		.word	1076170624
 145 00f0 000F2540 		.word	1076170496
 146 00f4 080F2540 		.word	1076170504
 147 00f8 880F2540 		.word	1076170632
 148 00fc 64002540 		.word	1076166756
 149 0100 68002540 		.word	1076166760
 150 0104 40022540 		.word	1076167232
 151              		.size	SCB_I2CMasterWriteBuf, .-SCB_I2CMasterWriteBuf
 152              		.section	.text.SCB_I2CMasterReadBuf,"ax",%progbits
 153              		.align	2
 154              		.global	SCB_I2CMasterReadBuf
 155              		.code	16
 156              		.thumb_func
 157              		.type	SCB_I2CMasterReadBuf, %function
 158              	SCB_I2CMasterReadBuf:
 159              		@ args = 0, pretend = 0, frame = 8
 160              		@ frame_needed = 0, uses_anonymous_args = 0
 161 0000 F0B5     		push	{r4, r5, r6, r7, lr}
 162 0002 4646     		mov	r6, r8
 163 0004 4F46     		mov	r7, r9
 164 0006 C0B4     		push	{r6, r7}
 165 0008 0400     		movs	r4, r0
 166 000a 83B0     		sub	sp, sp, #12
 167 000c 0E1E     		subs	r6, r1, #0
 168 000e 9146     		mov	r9, r2
 169 0010 9846     		mov	r8, r3
 170 0012 10D0     		beq	.L33
 171 0014 334D     		ldr	r5, .L44
ARM GAS  C:\Users\DMA\AppData\Local\Temp\cc5tcS2d.s 			page 4


 172 0016 2B78     		ldrb	r3, [r5]
 173 0018 102B     		cmp	r3, #16
 174 001a 58D0     		beq	.L41
 175 001c 2B78     		ldrb	r3, [r5]
 176 001e 0427     		movs	r7, #4
 177 0020 602B     		cmp	r3, #96
 178 0022 0AD0     		beq	.L42
 179              	.L30:
 180 0024 0A20     		movs	r0, #10
 181 0026 FFF7FEFF 		bl	CyIntEnable
 182 002a 3800     		movs	r0, r7
 183 002c 03B0     		add	sp, sp, #12
 184              		@ sp needed
 185 002e 0CBC     		pop	{r2, r3}
 186 0030 9046     		mov	r8, r2
 187 0032 9946     		mov	r9, r3
 188 0034 F0BD     		pop	{r4, r5, r6, r7, pc}
 189              	.L33:
 190 0036 0427     		movs	r7, #4
 191 0038 F4E7     		b	.L30
 192              	.L42:
 193 003a 0822     		movs	r2, #8
 194 003c 2A49     		ldr	r1, .L44+4
 195 003e 0B88     		ldrh	r3, [r1]
 196 0040 9343     		bics	r3, r2
 197 0042 0B80     		strh	r3, [r1]
 198              	.L26:
 199 0044 2923     		movs	r3, #41
 200 0046 0022     		movs	r2, #0
 201 0048 2B70     		strb	r3, [r5]
 202 004a 284B     		ldr	r3, .L44+8
 203 004c 6846     		mov	r0, sp
 204 004e 1A60     		str	r2, [r3]
 205 0050 4B46     		mov	r3, r9
 206 0052 274A     		ldr	r2, .L44+12
 207 0054 6400     		lsls	r4, r4, #1
 208 0056 1360     		str	r3, [r2]
 209 0058 264B     		ldr	r3, .L44+16
 210 005a 1E60     		str	r6, [r3]
 211 005c 4346     		mov	r3, r8
 212 005e C371     		strb	r3, [r0, #7]
 213 0060 C379     		ldrb	r3, [r0, #7]
 214 0062 2548     		ldr	r0, .L44+20
 215 0064 0370     		strb	r3, [r0]
 216 0066 FF23     		movs	r3, #255
 217 0068 0120     		movs	r0, #1
 218 006a 1C40     		ands	r4, r3
 219 006c 0B88     		ldrh	r3, [r1]
 220 006e 0443     		orrs	r4, r0
 221 0070 8343     		bics	r3, r0
 222 0072 0B80     		strh	r3, [r1]
 223 0074 2149     		ldr	r1, .L44+24
 224 0076 224B     		ldr	r3, .L44+28
 225 0078 1960     		str	r1, [r3]
 226 007a 1421     		movs	r1, #20
 227 007c 214B     		ldr	r3, .L44+32
 228 007e FF31     		adds	r1, r1, #255
ARM GAS  C:\Users\DMA\AppData\Local\Temp\cc5tcS2d.s 			page 5


 229 0080 1960     		str	r1, [r3]
 230 0082 1368     		ldr	r3, [r2]
 231 0084 072B     		cmp	r3, #7
 232 0086 18D8     		bhi	.L43
 233 0088 0422     		movs	r2, #4
 234 008a 1F4B     		ldr	r3, .L44+36
 235 008c 1A60     		str	r2, [r3]
 236              	.L27:
 237 008e 4346     		mov	r3, r8
 238 0090 DB07     		lsls	r3, r3, #31
 239 0092 0BD5     		bpl	.L28
 240 0094 1D4B     		ldr	r3, .L44+40
 241 0096 1A68     		ldr	r2, [r3]
 242 0098 0123     		movs	r3, #1
 243 009a 9206     		lsls	r2, r2, #26
 244 009c 00D5     		bpl	.L29
 245 009e 0833     		adds	r3, r3, #8
 246              	.L29:
 247 00a0 1B4A     		ldr	r2, .L44+44
 248 00a2 0027     		movs	r7, #0
 249 00a4 1360     		str	r3, [r2]
 250 00a6 1B4B     		ldr	r3, .L44+48
 251 00a8 1C60     		str	r4, [r3]
 252 00aa BBE7     		b	.L30
 253              	.L28:
 254 00ac 0222     		movs	r2, #2
 255 00ae 194B     		ldr	r3, .L44+48
 256 00b0 0027     		movs	r7, #0
 257 00b2 1C60     		str	r4, [r3]
 258 00b4 164B     		ldr	r3, .L44+44
 259 00b6 1A60     		str	r2, [r3]
 260 00b8 B4E7     		b	.L30
 261              	.L43:
 262 00ba 8021     		movs	r1, #128
 263 00bc 164A     		ldr	r2, .L44+52
 264 00be 4900     		lsls	r1, r1, #1
 265 00c0 1368     		ldr	r3, [r2]
 266 00c2 0B43     		orrs	r3, r1
 267 00c4 1360     		str	r3, [r2]
 268 00c6 0822     		movs	r2, #8
 269 00c8 0F4B     		ldr	r3, .L44+36
 270 00ca 1A60     		str	r2, [r3]
 271 00cc DFE7     		b	.L27
 272              	.L41:
 273 00ce 0A20     		movs	r0, #10
 274 00d0 FFF7FEFF 		bl	CyIntDisable
 275 00d4 0D4B     		ldr	r3, .L44+40
 276 00d6 0827     		movs	r7, #8
 277 00d8 1B68     		ldr	r3, [r3]
 278 00da DB07     		lsls	r3, r3, #31
 279 00dc A2D4     		bmi	.L30
 280 00de 0249     		ldr	r1, .L44+4
 281 00e0 B0E7     		b	.L26
 282              	.L45:
 283 00e2 C046     		.align	2
 284              	.L44:
 285 00e4 00000000 		.word	SCB_state
ARM GAS  C:\Users\DMA\AppData\Local\Temp\cc5tcS2d.s 			page 6


 286 00e8 00000000 		.word	SCB_mstrStatus
 287 00ec 00000000 		.word	SCB_mstrRdBufIndex
 288 00f0 00000000 		.word	SCB_mstrRdBufSize
 289 00f4 00000000 		.word	SCB_mstrRdBufPtr
 290 00f8 00000000 		.word	SCB_mstrControl
 291 00fc 17030000 		.word	791
 292 0100 000F2540 		.word	1076170496
 293 0104 080F2540 		.word	1076170504
 294 0108 C80F2540 		.word	1076170696
 295 010c 64002540 		.word	1076166756
 296 0110 68002540 		.word	1076166760
 297 0114 40022540 		.word	1076167232
 298 0118 60002540 		.word	1076166752
 299              		.size	SCB_I2CMasterReadBuf, .-SCB_I2CMasterReadBuf
 300              		.section	.text.SCB_I2CMasterSendStart,"ax",%progbits
 301              		.align	2
 302              		.global	SCB_I2CMasterSendStart
 303              		.code	16
 304              		.thumb_func
 305              		.type	SCB_I2CMasterSendStart, %function
 306              	SCB_I2CMasterSendStart:
 307              		@ args = 0, pretend = 0, frame = 0
 308              		@ frame_needed = 0, uses_anonymous_args = 0
 309 0000 F8B5     		push	{r3, r4, r5, r6, r7, lr}
 310 0002 4646     		mov	r6, r8
 311 0004 4F46     		mov	r7, r9
 312 0006 C0B4     		push	{r6, r7}
 313 0008 444D     		ldr	r5, .L78
 314 000a 0700     		movs	r7, r0
 315 000c 2B78     		ldrb	r3, [r5]
 316 000e 8846     		mov	r8, r1
 317 0010 1600     		movs	r6, r2
 318 0012 0424     		movs	r4, #4
 319 0014 102B     		cmp	r3, #16
 320 0016 04D0     		beq	.L76
 321              	.L72:
 322 0018 2000     		movs	r0, r4
 323              		@ sp needed
 324 001a 0CBC     		pop	{r2, r3}
 325 001c 9046     		mov	r8, r2
 326 001e 9946     		mov	r9, r3
 327 0020 F8BD     		pop	{r3, r4, r5, r6, r7, pc}
 328              	.L76:
 329 0022 0A20     		movs	r0, #10
 330 0024 FFF7FEFF 		bl	CyIntDisable
 331 0028 0122     		movs	r2, #1
 332 002a 3D4B     		ldr	r3, .L78+4
 333 002c 0434     		adds	r4, r4, #4
 334 002e 1B68     		ldr	r3, [r3]
 335 0030 1340     		ands	r3, r2
 336 0032 42D1     		bne	.L48
 337 0034 FA21     		movs	r1, #250
 338 0036 8900     		lsls	r1, r1, #2
 339 0038 4E43     		muls	r6, r1
 340 003a 3A49     		ldr	r1, .L78+8
 341 003c 7F00     		lsls	r7, r7, #1
 342 003e 0B60     		str	r3, [r1]
ARM GAS  C:\Users\DMA\AppData\Local\Temp\cc5tcS2d.s 			page 7


 343 0040 3949     		ldr	r1, .L78+12
 344 0042 3A4B     		ldr	r3, .L78+16
 345 0044 1960     		str	r1, [r3]
 346 0046 3A4B     		ldr	r3, .L78+20
 347 0048 3A49     		ldr	r1, .L78+24
 348 004a 1960     		str	r1, [r3]
 349 004c FF23     		movs	r3, #255
 350 004e 1F40     		ands	r7, r3
 351 0050 4346     		mov	r3, r8
 352 0052 002B     		cmp	r3, #0
 353 0054 35D1     		bne	.L49
 354 0056 2433     		adds	r3, r3, #36
 355 0058 2B70     		strb	r3, [r5]
 356              	.L50:
 357 005a 0222     		movs	r2, #2
 358 005c 364B     		ldr	r3, .L78+28
 359 005e 1F60     		str	r7, [r3]
 360 0060 364B     		ldr	r3, .L78+32
 361 0062 374F     		ldr	r7, .L78+36
 362 0064 1A60     		str	r2, [r3]
 363 0066 314B     		ldr	r3, .L78+16
 364 0068 9946     		mov	r9, r3
 365 006a 0823     		movs	r3, #8
 366 006c FF33     		adds	r3, r3, #255
 367 006e 9846     		mov	r8, r3
 368 0070 01E0     		b	.L52
 369              	.L51:
 370 0072 231E     		subs	r3, r4, #0
 371 0074 13D1     		bne	.L75
 372              	.L52:
 373 0076 4B46     		mov	r3, r9
 374 0078 4146     		mov	r1, r8
 375 007a 1C68     		ldr	r4, [r3]
 376 007c 3B68     		ldr	r3, [r7]
 377 007e 2140     		ands	r1, r4
 378 0080 C024     		movs	r4, #192
 379 0082 2340     		ands	r3, r4
 380 0084 0B43     		orrs	r3, r1
 381 0086 1C00     		movs	r4, r3
 382 0088 002E     		cmp	r6, #0
 383 008a F2D0     		beq	.L51
 384 008c 0120     		movs	r0, #1
 385 008e 013E     		subs	r6, r6, #1
 386 0090 FFF7FEFF 		bl	CyDelayUs
 387 0094 002E     		cmp	r6, #0
 388 0096 ECD1     		bne	.L51
 389 0098 8023     		movs	r3, #128
 390 009a 1B06     		lsls	r3, r3, #24
 391 009c 2343     		orrs	r3, r4
 392              	.L75:
 393 009e 002B     		cmp	r3, #0
 394 00a0 13DB     		blt	.L64
 395 00a2 C022     		movs	r2, #192
 396 00a4 1A42     		tst	r2, r3
 397 00a6 15D0     		beq	.L54
 398 00a8 0022     		movs	r2, #0
 399 00aa 244B     		ldr	r3, .L78+32
ARM GAS  C:\Users\DMA\AppData\Local\Temp\cc5tcS2d.s 			page 8


 400 00ac 1024     		movs	r4, #16
 401 00ae 1A60     		str	r2, [r3]
 402 00b0 1023     		movs	r3, #16
 403 00b2 2B70     		strb	r3, [r5]
 404              	.L58:
 405 00b4 1C4A     		ldr	r2, .L78+12
 406 00b6 1D4B     		ldr	r3, .L78+16
 407 00b8 1A60     		str	r2, [r3]
 408              	.L48:
 409 00ba 0A20     		movs	r0, #10
 410 00bc FFF7FEFF 		bl	CyIntEnable
 411 00c0 AAE7     		b	.L72
 412              	.L49:
 413 00c2 2523     		movs	r3, #37
 414 00c4 1743     		orrs	r7, r2
 415 00c6 2B70     		strb	r3, [r5]
 416 00c8 C7E7     		b	.L50
 417              	.L64:
 418 00ca 8024     		movs	r4, #128
 419 00cc 2406     		lsls	r4, r4, #24
 420              	.L57:
 421 00ce FFF7FEFF 		bl	SCB_I2CFwBlockReset
 422 00d2 F2E7     		b	.L48
 423              	.L54:
 424 00d4 0122     		movs	r2, #1
 425 00d6 1A42     		tst	r2, r3
 426 00d8 04D0     		beq	.L56
 427 00da 2B78     		ldrb	r3, [r5]
 428 00dc 1B07     		lsls	r3, r3, #28
 429 00de 14D4     		bmi	.L77
 430 00e0 0124     		movs	r4, #1
 431 00e2 F4E7     		b	.L57
 432              	.L56:
 433 00e4 8021     		movs	r1, #128
 434 00e6 4900     		lsls	r1, r1, #1
 435 00e8 0C00     		movs	r4, r1
 436 00ea 0B42     		tst	r3, r1
 437 00ec EFD1     		bne	.L57
 438 00ee FE3C     		subs	r4, r4, #254
 439 00f0 9B07     		lsls	r3, r3, #30
 440 00f2 DFD4     		bmi	.L58
 441 00f4 0823     		movs	r3, #8
 442 00f6 2978     		ldrb	r1, [r5]
 443 00f8 0B40     		ands	r3, r1
 444 00fa 1C1E     		subs	r4, r3, #0
 445 00fc DAD0     		beq	.L58
 446 00fe 2B78     		ldrb	r3, [r5]
 447 0100 0024     		movs	r4, #0
 448 0102 1A40     		ands	r2, r3
 449 0104 2432     		adds	r2, r2, #36
 450 0106 2A70     		strb	r2, [r5]
 451 0108 D4E7     		b	.L58
 452              	.L77:
 453 010a 0E4B     		ldr	r3, .L78+40
 454 010c 0F32     		adds	r2, r2, #15
 455 010e 1B68     		ldr	r3, [r3]
 456 0110 0124     		movs	r4, #1
ARM GAS  C:\Users\DMA\AppData\Local\Temp\cc5tcS2d.s 			page 9


 457 0112 2A70     		strb	r2, [r5]
 458 0114 5B00     		lsls	r3, r3, #1
 459 0116 CDD4     		bmi	.L58
 460 0118 D9E7     		b	.L57
 461              	.L79:
 462 011a C046     		.align	2
 463              	.L78:
 464 011c 00000000 		.word	SCB_state
 465 0120 64002540 		.word	1076166756
 466 0124 080F2540 		.word	1076170504
 467 0128 17030000 		.word	791
 468 012c 000F2540 		.word	1076170496
 469 0130 C00F2540 		.word	1076170688
 470 0134 ED0F0000 		.word	4077
 471 0138 40022540 		.word	1076167232
 472 013c 68002540 		.word	1076166760
 473 0140 400F2540 		.word	1076170560
 474 0144 60002540 		.word	1076166752
 475              		.size	SCB_I2CMasterSendStart, .-SCB_I2CMasterSendStart
 476              		.section	.text.SCB_I2CMasterSendRestart,"ax",%progbits
 477              		.align	2
 478              		.global	SCB_I2CMasterSendRestart
 479              		.code	16
 480              		.thumb_func
 481              		.type	SCB_I2CMasterSendRestart, %function
 482              	SCB_I2CMasterSendRestart:
 483              		@ args = 0, pretend = 0, frame = 0
 484              		@ frame_needed = 0, uses_anonymous_args = 0
 485 0000 F0B5     		push	{r4, r5, r6, r7, lr}
 486 0002 4746     		mov	r7, r8
 487 0004 80B4     		push	{r7}
 488 0006 364B     		ldr	r3, .L116
 489 0008 0424     		movs	r4, #4
 490 000a 9846     		mov	r8, r3
 491 000c 1B78     		ldrb	r3, [r3]
 492 000e 9B06     		lsls	r3, r3, #26
 493 0010 03D4     		bmi	.L111
 494              	.L105:
 495 0012 2000     		movs	r0, r4
 496              		@ sp needed
 497 0014 04BC     		pop	{r2}
 498 0016 9046     		mov	r8, r2
 499 0018 F0BD     		pop	{r4, r5, r6, r7, pc}
 500              	.L111:
 501 001a FA25     		movs	r5, #250
 502 001c FF23     		movs	r3, #255
 503 001e AD00     		lsls	r5, r5, #2
 504 0020 4000     		lsls	r0, r0, #1
 505 0022 5543     		muls	r5, r2
 506 0024 1840     		ands	r0, r3
 507 0026 0029     		cmp	r1, #0
 508 0028 33D0     		beq	.L112
 509 002a 2523     		movs	r3, #37
 510 002c 4246     		mov	r2, r8
 511 002e 1370     		strb	r3, [r2]
 512 0030 243B     		subs	r3, r3, #36
 513 0032 1843     		orrs	r0, r3
ARM GAS  C:\Users\DMA\AppData\Local\Temp\cc5tcS2d.s 			page 10


 514              	.L83:
 515 0034 2B4B     		ldr	r3, .L116+4
 516 0036 1A68     		ldr	r2, [r3]
 517 0038 0123     		movs	r3, #1
 518 003a 9206     		lsls	r2, r2, #26
 519 003c 00D5     		bpl	.L84
 520 003e 0833     		adds	r3, r3, #8
 521              	.L84:
 522 0040 0826     		movs	r6, #8
 523 0042 294A     		ldr	r2, .L116+8
 524 0044 294F     		ldr	r7, .L116+12
 525 0046 1360     		str	r3, [r2]
 526 0048 294B     		ldr	r3, .L116+16
 527 004a FF36     		adds	r6, r6, #255
 528 004c 1860     		str	r0, [r3]
 529 004e 01E0     		b	.L86
 530              	.L85:
 531 0050 231E     		subs	r3, r4, #0
 532 0052 0DD1     		bne	.L110
 533              	.L86:
 534 0054 3B68     		ldr	r3, [r7]
 535 0056 3340     		ands	r3, r6
 536 0058 1C00     		movs	r4, r3
 537 005a 002D     		cmp	r5, #0
 538 005c F8D0     		beq	.L85
 539 005e 0120     		movs	r0, #1
 540 0060 013D     		subs	r5, r5, #1
 541 0062 FFF7FEFF 		bl	CyDelayUs
 542 0066 002D     		cmp	r5, #0
 543 0068 F2D1     		bne	.L85
 544 006a 8023     		movs	r3, #128
 545 006c 1B06     		lsls	r3, r3, #24
 546 006e 2343     		orrs	r3, r4
 547              	.L110:
 548 0070 002B     		cmp	r3, #0
 549 0072 12DB     		blt	.L97
 550 0074 0122     		movs	r2, #1
 551 0076 1A42     		tst	r2, r3
 552 0078 14D1     		bne	.L113
 553 007a 8021     		movs	r1, #128
 554 007c 4900     		lsls	r1, r1, #1
 555 007e 0C00     		movs	r4, r1
 556 0080 0B42     		tst	r3, r1
 557 0082 0CD1     		bne	.L89
 558 0084 FE3C     		subs	r4, r4, #254
 559 0086 9B07     		lsls	r3, r3, #30
 560 0088 1BD5     		bpl	.L114
 561              	.L90:
 562 008a 1A4A     		ldr	r2, .L116+20
 563 008c 174B     		ldr	r3, .L116+12
 564 008e 1A60     		str	r2, [r3]
 565 0090 BFE7     		b	.L105
 566              	.L112:
 567 0092 4246     		mov	r2, r8
 568 0094 DB3B     		subs	r3, r3, #219
 569 0096 1370     		strb	r3, [r2]
 570 0098 CCE7     		b	.L83
ARM GAS  C:\Users\DMA\AppData\Local\Temp\cc5tcS2d.s 			page 11


 571              	.L97:
 572 009a 8024     		movs	r4, #128
 573 009c 2406     		lsls	r4, r4, #24
 574              	.L89:
 575 009e FFF7FEFF 		bl	SCB_I2CFwBlockReset
 576 00a2 B6E7     		b	.L105
 577              	.L113:
 578 00a4 4346     		mov	r3, r8
 579 00a6 1B78     		ldrb	r3, [r3]
 580 00a8 1B07     		lsls	r3, r3, #28
 581 00aa 01D4     		bmi	.L115
 582 00ac 0124     		movs	r4, #1
 583 00ae F6E7     		b	.L89
 584              	.L115:
 585 00b0 4146     		mov	r1, r8
 586 00b2 114B     		ldr	r3, .L116+24
 587 00b4 0F32     		adds	r2, r2, #15
 588 00b6 1B68     		ldr	r3, [r3]
 589 00b8 0124     		movs	r4, #1
 590 00ba 0A70     		strb	r2, [r1]
 591 00bc 5B00     		lsls	r3, r3, #1
 592 00be E4D4     		bmi	.L90
 593 00c0 EDE7     		b	.L89
 594              	.L114:
 595 00c2 4346     		mov	r3, r8
 596 00c4 1B78     		ldrb	r3, [r3]
 597 00c6 0024     		movs	r4, #0
 598 00c8 1B07     		lsls	r3, r3, #28
 599 00ca DED5     		bpl	.L90
 600 00cc 4346     		mov	r3, r8
 601 00ce 1B78     		ldrb	r3, [r3]
 602 00d0 1A40     		ands	r2, r3
 603 00d2 5342     		rsbs	r3, r2, #0
 604 00d4 5341     		adcs	r3, r3, r2
 605 00d6 2522     		movs	r2, #37
 606 00d8 D31A     		subs	r3, r2, r3
 607 00da 4246     		mov	r2, r8
 608 00dc 1370     		strb	r3, [r2]
 609 00de D4E7     		b	.L90
 610              	.L117:
 611              		.align	2
 612              	.L116:
 613 00e0 00000000 		.word	SCB_state
 614 00e4 64002540 		.word	1076166756
 615 00e8 68002540 		.word	1076166760
 616 00ec 000F2540 		.word	1076170496
 617 00f0 40022540 		.word	1076167232
 618 00f4 17030000 		.word	791
 619 00f8 60002540 		.word	1076166752
 620              		.size	SCB_I2CMasterSendRestart, .-SCB_I2CMasterSendRestart
 621              		.section	.text.SCB_I2CMasterSendStop,"ax",%progbits
 622              		.align	2
 623              		.global	SCB_I2CMasterSendStop
 624              		.code	16
 625              		.thumb_func
 626              		.type	SCB_I2CMasterSendStop, %function
 627              	SCB_I2CMasterSendStop:
ARM GAS  C:\Users\DMA\AppData\Local\Temp\cc5tcS2d.s 			page 12


 628              		@ args = 0, pretend = 0, frame = 0
 629              		@ frame_needed = 0, uses_anonymous_args = 0
 630 0000 F0B5     		push	{r4, r5, r6, r7, lr}
 631 0002 4746     		mov	r7, r8
 632 0004 80B4     		push	{r7}
 633 0006 2F4B     		ldr	r3, .L152
 634 0008 0424     		movs	r4, #4
 635 000a 9846     		mov	r8, r3
 636 000c 1A78     		ldrb	r2, [r3]
 637 000e 2023     		movs	r3, #32
 638 0010 1342     		tst	r3, r2
 639 0012 03D1     		bne	.L148
 640              	.L142:
 641 0014 2000     		movs	r0, r4
 642              		@ sp needed
 643 0016 04BC     		pop	{r2}
 644 0018 9046     		mov	r8, r2
 645 001a F0BD     		pop	{r4, r5, r6, r7, pc}
 646              	.L148:
 647 001c FA25     		movs	r5, #250
 648 001e 2A4A     		ldr	r2, .L152+4
 649 0020 AD00     		lsls	r5, r5, #2
 650 0022 1168     		ldr	r1, [r2]
 651 0024 4543     		muls	r5, r0
 652 0026 1822     		movs	r2, #24
 653 0028 0B42     		tst	r3, r1
 654 002a 29D0     		beq	.L149
 655              	.L120:
 656 002c 1226     		movs	r6, #18
 657 002e 274B     		ldr	r3, .L152+8
 658 0030 274F     		ldr	r7, .L152+12
 659 0032 1A60     		str	r2, [r3]
 660 0034 FF36     		adds	r6, r6, #255
 661 0036 01E0     		b	.L122
 662              	.L121:
 663 0038 231E     		subs	r3, r4, #0
 664 003a 0DD1     		bne	.L147
 665              	.L122:
 666 003c 3B68     		ldr	r3, [r7]
 667 003e 3340     		ands	r3, r6
 668 0040 1C00     		movs	r4, r3
 669 0042 002D     		cmp	r5, #0
 670 0044 F8D0     		beq	.L121
 671 0046 0120     		movs	r0, #1
 672 0048 013D     		subs	r5, r5, #1
 673 004a FFF7FEFF 		bl	CyDelayUs
 674 004e 002D     		cmp	r5, #0
 675 0050 F2D1     		bne	.L121
 676 0052 8023     		movs	r3, #128
 677 0054 1B06     		lsls	r3, r3, #24
 678 0056 2343     		orrs	r3, r4
 679              	.L147:
 680 0058 002B     		cmp	r3, #0
 681 005a 13DB     		blt	.L134
 682 005c 0122     		movs	r2, #1
 683 005e 1A42     		tst	r2, r3
 684 0060 15D1     		bne	.L150
ARM GAS  C:\Users\DMA\AppData\Local\Temp\cc5tcS2d.s 			page 13


 685 0062 8021     		movs	r1, #128
 686 0064 4900     		lsls	r1, r1, #1
 687 0066 0C00     		movs	r4, r1
 688 0068 0B42     		tst	r3, r1
 689 006a 0DD1     		bne	.L125
 690 006c F039     		subs	r1, r1, #240
 691 006e 1942     		tst	r1, r3
 692 0070 1CD0     		beq	.L127
 693 0072 4346     		mov	r3, r8
 694 0074 1970     		strb	r1, [r3]
 695              	.L128:
 696 0076 0024     		movs	r4, #0
 697              	.L126:
 698 0078 164A     		ldr	r2, .L152+16
 699 007a 154B     		ldr	r3, .L152+12
 700 007c 1A60     		str	r2, [r3]
 701 007e C9E7     		b	.L142
 702              	.L149:
 703 0080 083A     		subs	r2, r2, #8
 704 0082 D3E7     		b	.L120
 705              	.L134:
 706 0084 8024     		movs	r4, #128
 707 0086 2406     		lsls	r4, r4, #24
 708              	.L125:
 709 0088 FFF7FEFF 		bl	SCB_I2CFwBlockReset
 710 008c C2E7     		b	.L142
 711              	.L150:
 712 008e 4346     		mov	r3, r8
 713 0090 1B78     		ldrb	r3, [r3]
 714 0092 1B07     		lsls	r3, r3, #28
 715 0094 01D4     		bmi	.L151
 716 0096 0124     		movs	r4, #1
 717 0098 F6E7     		b	.L125
 718              	.L151:
 719 009a 4146     		mov	r1, r8
 720 009c 0E4B     		ldr	r3, .L152+20
 721 009e 0F32     		adds	r2, r2, #15
 722 00a0 1B68     		ldr	r3, [r3]
 723 00a2 0124     		movs	r4, #1
 724 00a4 0A70     		strb	r2, [r1]
 725 00a6 5B00     		lsls	r3, r3, #1
 726 00a8 E6D4     		bmi	.L126
 727 00aa EDE7     		b	.L125
 728              	.L127:
 729 00ac 4346     		mov	r3, r8
 730 00ae 1B78     		ldrb	r3, [r3]
 731 00b0 1B07     		lsls	r3, r3, #28
 732 00b2 E0D5     		bpl	.L128
 733 00b4 4346     		mov	r3, r8
 734 00b6 1B78     		ldrb	r3, [r3]
 735 00b8 1A40     		ands	r2, r3
 736 00ba 4346     		mov	r3, r8
 737 00bc 2432     		adds	r2, r2, #36
 738 00be 1A70     		strb	r2, [r3]
 739 00c0 D9E7     		b	.L128
 740              	.L153:
 741 00c2 C046     		.align	2
ARM GAS  C:\Users\DMA\AppData\Local\Temp\cc5tcS2d.s 			page 14


 742              	.L152:
 743 00c4 00000000 		.word	SCB_state
 744 00c8 64002540 		.word	1076166756
 745 00cc 68002540 		.word	1076166760
 746 00d0 000F2540 		.word	1076170496
 747 00d4 17030000 		.word	791
 748 00d8 60002540 		.word	1076166752
 749              		.size	SCB_I2CMasterSendStop, .-SCB_I2CMasterSendStop
 750              		.section	.text.SCB_I2CMasterWriteByte,"ax",%progbits
 751              		.align	2
 752              		.global	SCB_I2CMasterWriteByte
 753              		.code	16
 754              		.thumb_func
 755              		.type	SCB_I2CMasterWriteByte, %function
 756              	SCB_I2CMasterWriteByte:
 757              		@ args = 0, pretend = 0, frame = 0
 758              		@ frame_needed = 0, uses_anonymous_args = 0
 759 0000 F0B5     		push	{r4, r5, r6, r7, lr}
 760 0002 4746     		mov	r7, r8
 761 0004 80B4     		push	{r7}
 762 0006 2A4B     		ldr	r3, .L184
 763 0008 0424     		movs	r4, #4
 764 000a 9846     		mov	r8, r3
 765 000c 1B78     		ldrb	r3, [r3]
 766 000e 9B06     		lsls	r3, r3, #26
 767 0010 03D4     		bmi	.L180
 768              	.L175:
 769 0012 2000     		movs	r0, r4
 770              		@ sp needed
 771 0014 04BC     		pop	{r2}
 772 0016 9046     		mov	r8, r2
 773 0018 F0BD     		pop	{r4, r5, r6, r7, pc}
 774              	.L180:
 775 001a FA25     		movs	r5, #250
 776 001c 0826     		movs	r6, #8
 777 001e 254B     		ldr	r3, .L184+4
 778 0020 AD00     		lsls	r5, r5, #2
 779 0022 4D43     		muls	r5, r1
 780 0024 1860     		str	r0, [r3]
 781 0026 244F     		ldr	r7, .L184+8
 782 0028 FF36     		adds	r6, r6, #255
 783 002a 01E0     		b	.L157
 784              	.L156:
 785 002c 231E     		subs	r3, r4, #0
 786 002e 0DD1     		bne	.L179
 787              	.L157:
 788 0030 3B68     		ldr	r3, [r7]
 789 0032 3340     		ands	r3, r6
 790 0034 1C00     		movs	r4, r3
 791 0036 002D     		cmp	r5, #0
 792 0038 F8D0     		beq	.L156
 793 003a 0120     		movs	r0, #1
 794 003c 013D     		subs	r5, r5, #1
 795 003e FFF7FEFF 		bl	CyDelayUs
 796 0042 002D     		cmp	r5, #0
 797 0044 F2D1     		bne	.L156
 798 0046 8023     		movs	r3, #128
ARM GAS  C:\Users\DMA\AppData\Local\Temp\cc5tcS2d.s 			page 15


 799 0048 1B06     		lsls	r3, r3, #24
 800 004a 2343     		orrs	r3, r4
 801              	.L179:
 802 004c 002B     		cmp	r3, #0
 803 004e 0EDB     		blt	.L167
 804 0050 0122     		movs	r2, #1
 805 0052 1A42     		tst	r2, r3
 806 0054 10D1     		bne	.L181
 807 0056 8021     		movs	r1, #128
 808 0058 4900     		lsls	r1, r1, #1
 809 005a 0C00     		movs	r4, r1
 810 005c 0B42     		tst	r3, r1
 811 005e 08D1     		bne	.L160
 812 0060 FE3C     		subs	r4, r4, #254
 813 0062 9B07     		lsls	r3, r3, #30
 814 0064 17D5     		bpl	.L182
 815              	.L161:
 816 0066 154A     		ldr	r2, .L184+12
 817 0068 134B     		ldr	r3, .L184+8
 818 006a 1A60     		str	r2, [r3]
 819 006c D1E7     		b	.L175
 820              	.L167:
 821 006e 8024     		movs	r4, #128
 822 0070 2406     		lsls	r4, r4, #24
 823              	.L160:
 824 0072 FFF7FEFF 		bl	SCB_I2CFwBlockReset
 825 0076 CCE7     		b	.L175
 826              	.L181:
 827 0078 4346     		mov	r3, r8
 828 007a 1B78     		ldrb	r3, [r3]
 829 007c 1B07     		lsls	r3, r3, #28
 830 007e 01D4     		bmi	.L183
 831 0080 0124     		movs	r4, #1
 832 0082 F6E7     		b	.L160
 833              	.L183:
 834 0084 4146     		mov	r1, r8
 835 0086 0E4B     		ldr	r3, .L184+16
 836 0088 0F32     		adds	r2, r2, #15
 837 008a 1B68     		ldr	r3, [r3]
 838 008c 0124     		movs	r4, #1
 839 008e 0A70     		strb	r2, [r1]
 840 0090 5B00     		lsls	r3, r3, #1
 841 0092 E8D4     		bmi	.L161
 842 0094 EDE7     		b	.L160
 843              	.L182:
 844 0096 4346     		mov	r3, r8
 845 0098 1B78     		ldrb	r3, [r3]
 846 009a 0024     		movs	r4, #0
 847 009c 1B07     		lsls	r3, r3, #28
 848 009e E2D5     		bpl	.L161
 849 00a0 4346     		mov	r3, r8
 850 00a2 1B78     		ldrb	r3, [r3]
 851 00a4 1A40     		ands	r2, r3
 852 00a6 4346     		mov	r3, r8
 853 00a8 2432     		adds	r2, r2, #36
 854 00aa 1A70     		strb	r2, [r3]
 855 00ac DBE7     		b	.L161
ARM GAS  C:\Users\DMA\AppData\Local\Temp\cc5tcS2d.s 			page 16


 856              	.L185:
 857 00ae C046     		.align	2
 858              	.L184:
 859 00b0 00000000 		.word	SCB_state
 860 00b4 40022540 		.word	1076167232
 861 00b8 000F2540 		.word	1076170496
 862 00bc 17030000 		.word	791
 863 00c0 60002540 		.word	1076166752
 864              		.size	SCB_I2CMasterWriteByte, .-SCB_I2CMasterWriteByte
 865              		.section	.text.SCB_I2CMasterReadByte,"ax",%progbits
 866              		.align	2
 867              		.global	SCB_I2CMasterReadByte
 868              		.code	16
 869              		.thumb_func
 870              		.type	SCB_I2CMasterReadByte, %function
 871              	SCB_I2CMasterReadByte:
 872              		@ args = 0, pretend = 0, frame = 8
 873              		@ frame_needed = 0, uses_anonymous_args = 0
 874 0000 F0B5     		push	{r4, r5, r6, r7, lr}
 875 0002 5F46     		mov	r7, fp
 876 0004 4D46     		mov	r5, r9
 877 0006 5646     		mov	r6, r10
 878 0008 4446     		mov	r4, r8
 879 000a F0B4     		push	{r4, r5, r6, r7}
 880 000c 3A4B     		ldr	r3, .L220
 881 000e 83B0     		sub	sp, sp, #12
 882 0010 9B46     		mov	fp, r3
 883 0012 1B78     		ldrb	r3, [r3]
 884 0014 0090     		str	r0, [sp]
 885 0016 0191     		str	r1, [sp, #4]
 886 0018 0425     		movs	r5, #4
 887 001a 9B06     		lsls	r3, r3, #26
 888 001c 07D4     		bmi	.L216
 889              	.L208:
 890 001e 2800     		movs	r0, r5
 891 0020 03B0     		add	sp, sp, #12
 892              		@ sp needed
 893 0022 3CBC     		pop	{r2, r3, r4, r5}
 894 0024 9046     		mov	r8, r2
 895 0026 9946     		mov	r9, r3
 896 0028 A246     		mov	r10, r4
 897 002a AB46     		mov	fp, r5
 898 002c F0BD     		pop	{r4, r5, r6, r7, pc}
 899              	.L216:
 900 002e 334B     		ldr	r3, .L220+4
 901 0030 FA27     		movs	r7, #250
 902 0032 9A46     		mov	r10, r3
 903 0034 0223     		movs	r3, #2
 904 0036 FF33     		adds	r3, r3, #255
 905 0038 9946     		mov	r9, r3
 906 003a 314B     		ldr	r3, .L220+8
 907 003c BF00     		lsls	r7, r7, #2
 908 003e 5743     		muls	r7, r2
 909 0040 9846     		mov	r8, r3
 910 0042 03E0     		b	.L189
 911              	.L188:
 912 0044 2B00     		movs	r3, r5
ARM GAS  C:\Users\DMA\AppData\Local\Temp\cc5tcS2d.s 			page 17


 913 0046 3443     		orrs	r4, r6
 914 0048 2343     		orrs	r3, r4
 915 004a 16D1     		bne	.L217
 916              	.L189:
 917 004c 5346     		mov	r3, r10
 918 004e 1E68     		ldr	r6, [r3]
 919 0050 4B46     		mov	r3, r9
 920 0052 1E40     		ands	r6, r3
 921 0054 4346     		mov	r3, r8
 922 0056 0425     		movs	r5, #4
 923 0058 1B68     		ldr	r3, [r3]
 924 005a 0024     		movs	r4, #0
 925 005c 1D40     		ands	r5, r3
 926 005e 002F     		cmp	r7, #0
 927 0060 F0D0     		beq	.L188
 928 0062 0120     		movs	r0, #1
 929 0064 013F     		subs	r7, r7, #1
 930 0066 FFF7FEFF 		bl	CyDelayUs
 931 006a 002F     		cmp	r7, #0
 932 006c EAD1     		bne	.L188
 933 006e 8024     		movs	r4, #128
 934 0070 2B00     		movs	r3, r5
 935 0072 2406     		lsls	r4, r4, #24
 936 0074 3443     		orrs	r4, r6
 937 0076 2343     		orrs	r3, r4
 938 0078 E8D0     		beq	.L189
 939              	.L217:
 940 007a 002D     		cmp	r5, #0
 941 007c 06D0     		beq	.L190
 942 007e 214B     		ldr	r3, .L220+12
 943 0080 019A     		ldr	r2, [sp, #4]
 944 0082 1B68     		ldr	r3, [r3]
 945 0084 1370     		strb	r3, [r2]
 946 0086 204A     		ldr	r2, .L220+16
 947 0088 1D4B     		ldr	r3, .L220+8
 948 008a 1A60     		str	r2, [r3]
 949              	.L190:
 950 008c 002C     		cmp	r4, #0
 951 008e 1EDB     		blt	.L200
 952 0090 0123     		movs	r3, #1
 953 0092 2342     		tst	r3, r4
 954 0094 20D1     		bne	.L218
 955 0096 8022     		movs	r2, #128
 956 0098 5200     		lsls	r2, r2, #1
 957 009a 1500     		movs	r5, r2
 958 009c 1442     		tst	r4, r2
 959 009e 18D1     		bne	.L193
 960 00a0 5A46     		mov	r2, fp
 961 00a2 1278     		ldrb	r2, [r2]
 962 00a4 1207     		lsls	r2, r2, #28
 963 00a6 05D5     		bpl	.L195
 964 00a8 5A46     		mov	r2, fp
 965 00aa 1278     		ldrb	r2, [r2]
 966 00ac 1340     		ands	r3, r2
 967 00ae 5A46     		mov	r2, fp
 968 00b0 2433     		adds	r3, r3, #36
 969 00b2 1370     		strb	r3, [r2]
ARM GAS  C:\Users\DMA\AppData\Local\Temp\cc5tcS2d.s 			page 18


 970              	.L195:
 971 00b4 0025     		movs	r5, #0
 972              	.L194:
 973 00b6 154A     		ldr	r2, .L220+20
 974 00b8 104B     		ldr	r3, .L220+4
 975 00ba 1A60     		str	r2, [r3]
 976 00bc 002D     		cmp	r5, #0
 977 00be AED1     		bne	.L208
 978 00c0 009B     		ldr	r3, [sp]
 979 00c2 002B     		cmp	r3, #0
 980 00c4 ABD1     		bne	.L208
 981 00c6 0422     		movs	r2, #4
 982 00c8 114B     		ldr	r3, .L220+24
 983 00ca 1A60     		str	r2, [r3]
 984 00cc A7E7     		b	.L208
 985              	.L200:
 986 00ce 8025     		movs	r5, #128
 987 00d0 2D06     		lsls	r5, r5, #24
 988              	.L193:
 989 00d2 FFF7FEFF 		bl	SCB_I2CFwBlockReset
 990 00d6 A2E7     		b	.L208
 991              	.L218:
 992 00d8 5B46     		mov	r3, fp
 993 00da 1B78     		ldrb	r3, [r3]
 994 00dc 1B07     		lsls	r3, r3, #28
 995 00de 01D4     		bmi	.L219
 996 00e0 0125     		movs	r5, #1
 997 00e2 F6E7     		b	.L193
 998              	.L219:
 999 00e4 1022     		movs	r2, #16
 1000 00e6 5946     		mov	r1, fp
 1001 00e8 0A4B     		ldr	r3, .L220+28
 1002 00ea 0125     		movs	r5, #1
 1003 00ec 1B68     		ldr	r3, [r3]
 1004 00ee 0A70     		strb	r2, [r1]
 1005 00f0 5B00     		lsls	r3, r3, #1
 1006 00f2 E0D4     		bmi	.L194
 1007 00f4 EDE7     		b	.L193
 1008              	.L221:
 1009 00f6 C046     		.align	2
 1010              	.L220:
 1011 00f8 00000000 		.word	SCB_state
 1012 00fc 000F2540 		.word	1076170496
 1013 0100 C00F2540 		.word	1076170688
 1014 0104 40032540 		.word	1076167488
 1015 0108 ED0F0000 		.word	4077
 1016 010c 17030000 		.word	791
 1017 0110 68002540 		.word	1076166760
 1018 0114 60002540 		.word	1076166752
 1019              		.size	SCB_I2CMasterReadByte, .-SCB_I2CMasterReadByte
 1020              		.section	.text.SCB_I2CMasterGetReadBufSize,"ax",%progbits
 1021              		.align	2
 1022              		.global	SCB_I2CMasterGetReadBufSize
 1023              		.code	16
 1024              		.thumb_func
 1025              		.type	SCB_I2CMasterGetReadBufSize, %function
 1026              	SCB_I2CMasterGetReadBufSize:
ARM GAS  C:\Users\DMA\AppData\Local\Temp\cc5tcS2d.s 			page 19


 1027              		@ args = 0, pretend = 0, frame = 0
 1028              		@ frame_needed = 0, uses_anonymous_args = 0
 1029              		@ link register save eliminated.
 1030 0000 014B     		ldr	r3, .L223
 1031              		@ sp needed
 1032 0002 1868     		ldr	r0, [r3]
 1033 0004 7047     		bx	lr
 1034              	.L224:
 1035 0006 C046     		.align	2
 1036              	.L223:
 1037 0008 00000000 		.word	SCB_mstrRdBufIndex
 1038              		.size	SCB_I2CMasterGetReadBufSize, .-SCB_I2CMasterGetReadBufSize
 1039              		.section	.text.SCB_I2CMasterGetWriteBufSize,"ax",%progbits
 1040              		.align	2
 1041              		.global	SCB_I2CMasterGetWriteBufSize
 1042              		.code	16
 1043              		.thumb_func
 1044              		.type	SCB_I2CMasterGetWriteBufSize, %function
 1045              	SCB_I2CMasterGetWriteBufSize:
 1046              		@ args = 0, pretend = 0, frame = 0
 1047              		@ frame_needed = 0, uses_anonymous_args = 0
 1048              		@ link register save eliminated.
 1049 0000 014B     		ldr	r3, .L226
 1050              		@ sp needed
 1051 0002 1868     		ldr	r0, [r3]
 1052 0004 7047     		bx	lr
 1053              	.L227:
 1054 0006 C046     		.align	2
 1055              	.L226:
 1056 0008 00000000 		.word	SCB_mstrWrBufIndex
 1057              		.size	SCB_I2CMasterGetWriteBufSize, .-SCB_I2CMasterGetWriteBufSize
 1058              		.section	.text.SCB_I2CMasterClearReadBuf,"ax",%progbits
 1059              		.align	2
 1060              		.global	SCB_I2CMasterClearReadBuf
 1061              		.code	16
 1062              		.thumb_func
 1063              		.type	SCB_I2CMasterClearReadBuf, %function
 1064              	SCB_I2CMasterClearReadBuf:
 1065              		@ args = 0, pretend = 0, frame = 0
 1066              		@ frame_needed = 0, uses_anonymous_args = 0
 1067 0000 10B5     		push	{r4, lr}
 1068 0002 0A20     		movs	r0, #10
 1069 0004 FFF7FEFF 		bl	CyIntDisable
 1070 0008 0022     		movs	r2, #0
 1071 000a 0121     		movs	r1, #1
 1072 000c 044B     		ldr	r3, .L229
 1073 000e 0A20     		movs	r0, #10
 1074 0010 1A60     		str	r2, [r3]
 1075 0012 044A     		ldr	r2, .L229+4
 1076              		@ sp needed
 1077 0014 1388     		ldrh	r3, [r2]
 1078 0016 8B43     		bics	r3, r1
 1079 0018 1380     		strh	r3, [r2]
 1080 001a FFF7FEFF 		bl	CyIntEnable
 1081 001e 10BD     		pop	{r4, pc}
 1082              	.L230:
 1083              		.align	2
ARM GAS  C:\Users\DMA\AppData\Local\Temp\cc5tcS2d.s 			page 20


 1084              	.L229:
 1085 0020 00000000 		.word	SCB_mstrRdBufIndex
 1086 0024 00000000 		.word	SCB_mstrStatus
 1087              		.size	SCB_I2CMasterClearReadBuf, .-SCB_I2CMasterClearReadBuf
 1088              		.section	.text.SCB_I2CMasterClearWriteBuf,"ax",%progbits
 1089              		.align	2
 1090              		.global	SCB_I2CMasterClearWriteBuf
 1091              		.code	16
 1092              		.thumb_func
 1093              		.type	SCB_I2CMasterClearWriteBuf, %function
 1094              	SCB_I2CMasterClearWriteBuf:
 1095              		@ args = 0, pretend = 0, frame = 0
 1096              		@ frame_needed = 0, uses_anonymous_args = 0
 1097 0000 10B5     		push	{r4, lr}
 1098 0002 0A20     		movs	r0, #10
 1099 0004 FFF7FEFF 		bl	CyIntDisable
 1100 0008 0022     		movs	r2, #0
 1101 000a 0221     		movs	r1, #2
 1102 000c 044B     		ldr	r3, .L232
 1103 000e 0A20     		movs	r0, #10
 1104 0010 1A60     		str	r2, [r3]
 1105 0012 044A     		ldr	r2, .L232+4
 1106              		@ sp needed
 1107 0014 1388     		ldrh	r3, [r2]
 1108 0016 8B43     		bics	r3, r1
 1109 0018 1380     		strh	r3, [r2]
 1110 001a FFF7FEFF 		bl	CyIntEnable
 1111 001e 10BD     		pop	{r4, pc}
 1112              	.L233:
 1113              		.align	2
 1114              	.L232:
 1115 0020 00000000 		.word	SCB_mstrWrBufIndex
 1116 0024 00000000 		.word	SCB_mstrStatus
 1117              		.size	SCB_I2CMasterClearWriteBuf, .-SCB_I2CMasterClearWriteBuf
 1118              		.section	.text.SCB_I2CMasterStatus,"ax",%progbits
 1119              		.align	2
 1120              		.global	SCB_I2CMasterStatus
 1121              		.code	16
 1122              		.thumb_func
 1123              		.type	SCB_I2CMasterStatus, %function
 1124              	SCB_I2CMasterStatus:
 1125              		@ args = 0, pretend = 0, frame = 0
 1126              		@ frame_needed = 0, uses_anonymous_args = 0
 1127 0000 10B5     		push	{r4, lr}
 1128 0002 0A20     		movs	r0, #10
 1129 0004 FFF7FEFF 		bl	CyIntDisable
 1130 0008 074B     		ldr	r3, .L237
 1131 000a 1888     		ldrh	r0, [r3]
 1132 000c 074B     		ldr	r3, .L237+4
 1133 000e 80B2     		uxth	r0, r0
 1134 0010 1B78     		ldrb	r3, [r3]
 1135 0012 0400     		movs	r4, r0
 1136 0014 9B06     		lsls	r3, r3, #26
 1137 0016 01D5     		bpl	.L236
 1138 0018 0424     		movs	r4, #4
 1139 001a 0443     		orrs	r4, r0
 1140              	.L236:
ARM GAS  C:\Users\DMA\AppData\Local\Temp\cc5tcS2d.s 			page 21


 1141 001c 0A20     		movs	r0, #10
 1142 001e FFF7FEFF 		bl	CyIntEnable
 1143              		@ sp needed
 1144 0022 2000     		movs	r0, r4
 1145 0024 10BD     		pop	{r4, pc}
 1146              	.L238:
 1147 0026 C046     		.align	2
 1148              	.L237:
 1149 0028 00000000 		.word	SCB_mstrStatus
 1150 002c 00000000 		.word	SCB_state
 1151              		.size	SCB_I2CMasterStatus, .-SCB_I2CMasterStatus
 1152              		.section	.text.SCB_I2CMasterClearStatus,"ax",%progbits
 1153              		.align	2
 1154              		.global	SCB_I2CMasterClearStatus
 1155              		.code	16
 1156              		.thumb_func
 1157              		.type	SCB_I2CMasterClearStatus, %function
 1158              	SCB_I2CMasterClearStatus:
 1159              		@ args = 0, pretend = 0, frame = 0
 1160              		@ frame_needed = 0, uses_anonymous_args = 0
 1161 0000 10B5     		push	{r4, lr}
 1162 0002 0A20     		movs	r0, #10
 1163 0004 FFF7FEFF 		bl	CyIntDisable
 1164 0008 0022     		movs	r2, #0
 1165 000a 044B     		ldr	r3, .L240
 1166 000c 0A20     		movs	r0, #10
 1167 000e 1C88     		ldrh	r4, [r3]
 1168              		@ sp needed
 1169 0010 A4B2     		uxth	r4, r4
 1170 0012 1A80     		strh	r2, [r3]
 1171 0014 FFF7FEFF 		bl	CyIntEnable
 1172 0018 2000     		movs	r0, r4
 1173 001a 10BD     		pop	{r4, pc}
 1174              	.L241:
 1175              		.align	2
 1176              	.L240:
 1177 001c 00000000 		.word	SCB_mstrStatus
 1178              		.size	SCB_I2CMasterClearStatus, .-SCB_I2CMasterClearStatus
 1179              		.section	.text.SCB_I2CReStartGeneration,"ax",%progbits
 1180              		.align	2
 1181              		.global	SCB_I2CReStartGeneration
 1182              		.code	16
 1183              		.thumb_func
 1184              		.type	SCB_I2CReStartGeneration, %function
 1185              	SCB_I2CReStartGeneration:
 1186              		@ args = 0, pretend = 0, frame = 0
 1187              		@ frame_needed = 0, uses_anonymous_args = 0
 1188              		@ link register save eliminated.
 1189 0000 044B     		ldr	r3, .L246
 1190 0002 1A68     		ldr	r2, [r3]
 1191 0004 0123     		movs	r3, #1
 1192 0006 9206     		lsls	r2, r2, #26
 1193 0008 00D5     		bpl	.L243
 1194 000a 0833     		adds	r3, r3, #8
 1195              	.L243:
 1196 000c 024A     		ldr	r2, .L246+4
 1197              		@ sp needed
ARM GAS  C:\Users\DMA\AppData\Local\Temp\cc5tcS2d.s 			page 22


 1198 000e 1360     		str	r3, [r2]
 1199 0010 7047     		bx	lr
 1200              	.L247:
 1201 0012 C046     		.align	2
 1202              	.L246:
 1203 0014 64002540 		.word	1076166756
 1204 0018 68002540 		.word	1076166760
 1205              		.size	SCB_I2CReStartGeneration, .-SCB_I2CReStartGeneration
 1206              		.comm	SCB_mstrWrBufIndexTmp,4,4
 1207              		.comm	SCB_mstrWrBufIndex,4,4
 1208              		.comm	SCB_mstrWrBufSize,4,4
 1209              		.comm	SCB_mstrWrBufPtr,4,4
 1210              		.comm	SCB_mstrRdBufIndex,4,4
 1211              		.comm	SCB_mstrRdBufSize,4,4
 1212              		.comm	SCB_mstrRdBufPtr,4,4
 1213              		.comm	SCB_mstrControl,1,1
 1214              		.comm	SCB_mstrStatus,2,2
 1215              		.ident	"GCC: (GNU Tools for ARM Embedded Processors) 5.4.1 20160609 (release) [ARM/embedded-5-bran
