ARM GAS  C:\Users\DMA\AppData\Local\Temp\ccFRQJD1.s 			page 1


   1              		.syntax unified
   2              		.cpu cortex-m0
   3              		.fpu softvfp
   4              		.eabi_attribute 20, 1
   5              		.eabi_attribute 21, 1
   6              		.eabi_attribute 23, 3
   7              		.eabi_attribute 24, 1
   8              		.eabi_attribute 25, 1
   9              		.eabi_attribute 26, 1
  10              		.eabi_attribute 30, 2
  11              		.eabi_attribute 34, 0
  12              		.eabi_attribute 18, 4
  13              		.thumb
  14              		.syntax unified
  15              		.file	"Wakeup_Interrupt.c"
  16              		.section	.text.Wakeup_Interrupt_Interrupt,"ax",%progbits
  17              		.align	2
  18              		.global	Wakeup_Interrupt_Interrupt
  19              		.code	16
  20              		.thumb_func
  21              		.type	Wakeup_Interrupt_Interrupt, %function
  22              	Wakeup_Interrupt_Interrupt:
  23              		@ args = 0, pretend = 0, frame = 0
  24              		@ frame_needed = 0, uses_anonymous_args = 0
  25              		@ link register save eliminated.
  26              		@ sp needed
  27 0000 7047     		bx	lr
  28              		.size	Wakeup_Interrupt_Interrupt, .-Wakeup_Interrupt_Interrupt
  29 0002 C046     		.section	.text.Wakeup_Interrupt_Start,"ax",%progbits
  30              		.align	2
  31              		.global	Wakeup_Interrupt_Start
  32              		.code	16
  33              		.thumb_func
  34              		.type	Wakeup_Interrupt_Start, %function
  35              	Wakeup_Interrupt_Start:
  36              		@ args = 0, pretend = 0, frame = 0
  37              		@ frame_needed = 0, uses_anonymous_args = 0
  38 0000 10B5     		push	{r4, lr}
  39 0002 0424     		movs	r4, #4
  40 0004 084B     		ldr	r3, .L3
  41 0006 094A     		ldr	r2, .L3+4
  42 0008 1C60     		str	r4, [r3]
  43 000a 094B     		ldr	r3, .L3+8
  44              		@ sp needed
  45 000c 9A64     		str	r2, [r3, #72]
  46 000e FFF7FEFF 		bl	CyEnterCriticalSection
  47 0012 C023     		movs	r3, #192
  48 0014 074A     		ldr	r2, .L3+12
  49 0016 1B04     		lsls	r3, r3, #16
  50 0018 1168     		ldr	r1, [r2]
  51 001a 0B43     		orrs	r3, r1
  52 001c 1360     		str	r3, [r2]
  53 001e FFF7FEFF 		bl	CyExitCriticalSection
  54 0022 054B     		ldr	r3, .L3+16
  55 0024 1C60     		str	r4, [r3]
  56 0026 10BD     		pop	{r4, pc}
  57              	.L4:
ARM GAS  C:\Users\DMA\AppData\Local\Temp\ccFRQJD1.s 			page 2


  58              		.align	2
  59              	.L3:
  60 0028 80E100E0 		.word	-536813184
  61 002c 00000000 		.word	Wakeup_Interrupt_Interrupt
  62 0030 00000000 		.word	CyRamVectors
  63 0034 00E400E0 		.word	-536812544
  64 0038 00E100E0 		.word	-536813312
  65              		.size	Wakeup_Interrupt_Start, .-Wakeup_Interrupt_Start
  66              		.section	.text.Wakeup_Interrupt_StartEx,"ax",%progbits
  67              		.align	2
  68              		.global	Wakeup_Interrupt_StartEx
  69              		.code	16
  70              		.thumb_func
  71              		.type	Wakeup_Interrupt_StartEx, %function
  72              	Wakeup_Interrupt_StartEx:
  73              		@ args = 0, pretend = 0, frame = 0
  74              		@ frame_needed = 0, uses_anonymous_args = 0
  75 0000 10B5     		push	{r4, lr}
  76 0002 0424     		movs	r4, #4
  77 0004 084B     		ldr	r3, .L6
  78              		@ sp needed
  79 0006 1C60     		str	r4, [r3]
  80 0008 084B     		ldr	r3, .L6+4
  81 000a 9864     		str	r0, [r3, #72]
  82 000c FFF7FEFF 		bl	CyEnterCriticalSection
  83 0010 C023     		movs	r3, #192
  84 0012 074A     		ldr	r2, .L6+8
  85 0014 1B04     		lsls	r3, r3, #16
  86 0016 1168     		ldr	r1, [r2]
  87 0018 0B43     		orrs	r3, r1
  88 001a 1360     		str	r3, [r2]
  89 001c FFF7FEFF 		bl	CyExitCriticalSection
  90 0020 044B     		ldr	r3, .L6+12
  91 0022 1C60     		str	r4, [r3]
  92 0024 10BD     		pop	{r4, pc}
  93              	.L7:
  94 0026 C046     		.align	2
  95              	.L6:
  96 0028 80E100E0 		.word	-536813184
  97 002c 00000000 		.word	CyRamVectors
  98 0030 00E400E0 		.word	-536812544
  99 0034 00E100E0 		.word	-536813312
 100              		.size	Wakeup_Interrupt_StartEx, .-Wakeup_Interrupt_StartEx
 101              		.section	.text.Wakeup_Interrupt_Stop,"ax",%progbits
 102              		.align	2
 103              		.global	Wakeup_Interrupt_Stop
 104              		.code	16
 105              		.thumb_func
 106              		.type	Wakeup_Interrupt_Stop, %function
 107              	Wakeup_Interrupt_Stop:
 108              		@ args = 0, pretend = 0, frame = 0
 109              		@ frame_needed = 0, uses_anonymous_args = 0
 110              		@ link register save eliminated.
 111 0000 0422     		movs	r2, #4
 112 0002 034B     		ldr	r3, .L9
 113              		@ sp needed
 114 0004 1A60     		str	r2, [r3]
ARM GAS  C:\Users\DMA\AppData\Local\Temp\ccFRQJD1.s 			page 3


 115 0006 034A     		ldr	r2, .L9+4
 116 0008 034B     		ldr	r3, .L9+8
 117 000a 9A64     		str	r2, [r3, #72]
 118 000c 7047     		bx	lr
 119              	.L10:
 120 000e C046     		.align	2
 121              	.L9:
 122 0010 80E100E0 		.word	-536813184
 123 0014 00000000 		.word	IntDefaultHandler
 124 0018 00000000 		.word	CyRamVectors
 125              		.size	Wakeup_Interrupt_Stop, .-Wakeup_Interrupt_Stop
 126              		.section	.text.Wakeup_Interrupt_SetVector,"ax",%progbits
 127              		.align	2
 128              		.global	Wakeup_Interrupt_SetVector
 129              		.code	16
 130              		.thumb_func
 131              		.type	Wakeup_Interrupt_SetVector, %function
 132              	Wakeup_Interrupt_SetVector:
 133              		@ args = 0, pretend = 0, frame = 0
 134              		@ frame_needed = 0, uses_anonymous_args = 0
 135              		@ link register save eliminated.
 136 0000 014B     		ldr	r3, .L12
 137              		@ sp needed
 138 0002 9864     		str	r0, [r3, #72]
 139 0004 7047     		bx	lr
 140              	.L13:
 141 0006 C046     		.align	2
 142              	.L12:
 143 0008 00000000 		.word	CyRamVectors
 144              		.size	Wakeup_Interrupt_SetVector, .-Wakeup_Interrupt_SetVector
 145              		.section	.text.Wakeup_Interrupt_GetVector,"ax",%progbits
 146              		.align	2
 147              		.global	Wakeup_Interrupt_GetVector
 148              		.code	16
 149              		.thumb_func
 150              		.type	Wakeup_Interrupt_GetVector, %function
 151              	Wakeup_Interrupt_GetVector:
 152              		@ args = 0, pretend = 0, frame = 0
 153              		@ frame_needed = 0, uses_anonymous_args = 0
 154              		@ link register save eliminated.
 155 0000 014B     		ldr	r3, .L15
 156              		@ sp needed
 157 0002 986C     		ldr	r0, [r3, #72]
 158 0004 7047     		bx	lr
 159              	.L16:
 160 0006 C046     		.align	2
 161              	.L15:
 162 0008 00000000 		.word	CyRamVectors
 163              		.size	Wakeup_Interrupt_GetVector, .-Wakeup_Interrupt_GetVector
 164              		.section	.text.Wakeup_Interrupt_SetPriority,"ax",%progbits
 165              		.align	2
 166              		.global	Wakeup_Interrupt_SetPriority
 167              		.code	16
 168              		.thumb_func
 169              		.type	Wakeup_Interrupt_SetPriority, %function
 170              	Wakeup_Interrupt_SetPriority:
 171              		@ args = 0, pretend = 0, frame = 0
ARM GAS  C:\Users\DMA\AppData\Local\Temp\ccFRQJD1.s 			page 4


 172              		@ frame_needed = 0, uses_anonymous_args = 0
 173 0000 10B5     		push	{r4, lr}
 174 0002 0400     		movs	r4, r0
 175 0004 FFF7FEFF 		bl	CyEnterCriticalSection
 176 0008 044A     		ldr	r2, .L18
 177 000a 054B     		ldr	r3, .L18+4
 178 000c 1168     		ldr	r1, [r2]
 179 000e A405     		lsls	r4, r4, #22
 180 0010 0B40     		ands	r3, r1
 181 0012 1C43     		orrs	r4, r3
 182 0014 1460     		str	r4, [r2]
 183 0016 FFF7FEFF 		bl	CyExitCriticalSection
 184              		@ sp needed
 185 001a 10BD     		pop	{r4, pc}
 186              	.L19:
 187              		.align	2
 188              	.L18:
 189 001c 00E400E0 		.word	-536812544
 190 0020 FFFF3FFF 		.word	-12582913
 191              		.size	Wakeup_Interrupt_SetPriority, .-Wakeup_Interrupt_SetPriority
 192              		.section	.text.Wakeup_Interrupt_GetPriority,"ax",%progbits
 193              		.align	2
 194              		.global	Wakeup_Interrupt_GetPriority
 195              		.code	16
 196              		.thumb_func
 197              		.type	Wakeup_Interrupt_GetPriority, %function
 198              	Wakeup_Interrupt_GetPriority:
 199              		@ args = 0, pretend = 0, frame = 0
 200              		@ frame_needed = 0, uses_anonymous_args = 0
 201              		@ link register save eliminated.
 202 0000 024B     		ldr	r3, .L21
 203              		@ sp needed
 204 0002 1868     		ldr	r0, [r3]
 205 0004 0002     		lsls	r0, r0, #8
 206 0006 800F     		lsrs	r0, r0, #30
 207 0008 7047     		bx	lr
 208              	.L22:
 209 000a C046     		.align	2
 210              	.L21:
 211 000c 00E400E0 		.word	-536812544
 212              		.size	Wakeup_Interrupt_GetPriority, .-Wakeup_Interrupt_GetPriority
 213              		.section	.text.Wakeup_Interrupt_Enable,"ax",%progbits
 214              		.align	2
 215              		.global	Wakeup_Interrupt_Enable
 216              		.code	16
 217              		.thumb_func
 218              		.type	Wakeup_Interrupt_Enable, %function
 219              	Wakeup_Interrupt_Enable:
 220              		@ args = 0, pretend = 0, frame = 0
 221              		@ frame_needed = 0, uses_anonymous_args = 0
 222              		@ link register save eliminated.
 223 0000 0422     		movs	r2, #4
 224 0002 014B     		ldr	r3, .L24
 225              		@ sp needed
 226 0004 1A60     		str	r2, [r3]
 227 0006 7047     		bx	lr
 228              	.L25:
ARM GAS  C:\Users\DMA\AppData\Local\Temp\ccFRQJD1.s 			page 5


 229              		.align	2
 230              	.L24:
 231 0008 00E100E0 		.word	-536813312
 232              		.size	Wakeup_Interrupt_Enable, .-Wakeup_Interrupt_Enable
 233              		.section	.text.Wakeup_Interrupt_GetState,"ax",%progbits
 234              		.align	2
 235              		.global	Wakeup_Interrupt_GetState
 236              		.code	16
 237              		.thumb_func
 238              		.type	Wakeup_Interrupt_GetState, %function
 239              	Wakeup_Interrupt_GetState:
 240              		@ args = 0, pretend = 0, frame = 0
 241              		@ frame_needed = 0, uses_anonymous_args = 0
 242              		@ link register save eliminated.
 243 0000 024B     		ldr	r3, .L27
 244              		@ sp needed
 245 0002 1868     		ldr	r0, [r3]
 246 0004 4007     		lsls	r0, r0, #29
 247 0006 C00F     		lsrs	r0, r0, #31
 248 0008 7047     		bx	lr
 249              	.L28:
 250 000a C046     		.align	2
 251              	.L27:
 252 000c 00E100E0 		.word	-536813312
 253              		.size	Wakeup_Interrupt_GetState, .-Wakeup_Interrupt_GetState
 254              		.section	.text.Wakeup_Interrupt_Disable,"ax",%progbits
 255              		.align	2
 256              		.global	Wakeup_Interrupt_Disable
 257              		.code	16
 258              		.thumb_func
 259              		.type	Wakeup_Interrupt_Disable, %function
 260              	Wakeup_Interrupt_Disable:
 261              		@ args = 0, pretend = 0, frame = 0
 262              		@ frame_needed = 0, uses_anonymous_args = 0
 263              		@ link register save eliminated.
 264 0000 0422     		movs	r2, #4
 265 0002 014B     		ldr	r3, .L30
 266              		@ sp needed
 267 0004 1A60     		str	r2, [r3]
 268 0006 7047     		bx	lr
 269              	.L31:
 270              		.align	2
 271              	.L30:
 272 0008 80E100E0 		.word	-536813184
 273              		.size	Wakeup_Interrupt_Disable, .-Wakeup_Interrupt_Disable
 274              		.section	.text.Wakeup_Interrupt_SetPending,"ax",%progbits
 275              		.align	2
 276              		.global	Wakeup_Interrupt_SetPending
 277              		.code	16
 278              		.thumb_func
 279              		.type	Wakeup_Interrupt_SetPending, %function
 280              	Wakeup_Interrupt_SetPending:
 281              		@ args = 0, pretend = 0, frame = 0
 282              		@ frame_needed = 0, uses_anonymous_args = 0
 283              		@ link register save eliminated.
 284 0000 0422     		movs	r2, #4
 285 0002 014B     		ldr	r3, .L33
ARM GAS  C:\Users\DMA\AppData\Local\Temp\ccFRQJD1.s 			page 6


 286              		@ sp needed
 287 0004 1A60     		str	r2, [r3]
 288 0006 7047     		bx	lr
 289              	.L34:
 290              		.align	2
 291              	.L33:
 292 0008 00E200E0 		.word	-536813056
 293              		.size	Wakeup_Interrupt_SetPending, .-Wakeup_Interrupt_SetPending
 294              		.section	.text.Wakeup_Interrupt_ClearPending,"ax",%progbits
 295              		.align	2
 296              		.global	Wakeup_Interrupt_ClearPending
 297              		.code	16
 298              		.thumb_func
 299              		.type	Wakeup_Interrupt_ClearPending, %function
 300              	Wakeup_Interrupt_ClearPending:
 301              		@ args = 0, pretend = 0, frame = 0
 302              		@ frame_needed = 0, uses_anonymous_args = 0
 303              		@ link register save eliminated.
 304 0000 0422     		movs	r2, #4
 305 0002 014B     		ldr	r3, .L36
 306              		@ sp needed
 307 0004 1A60     		str	r2, [r3]
 308 0006 7047     		bx	lr
 309              	.L37:
 310              		.align	2
 311              	.L36:
 312 0008 80E200E0 		.word	-536812928
 313              		.size	Wakeup_Interrupt_ClearPending, .-Wakeup_Interrupt_ClearPending
 314              		.ident	"GCC: (GNU Tools for ARM Embedded Processors) 5.4.1 20160609 (release) [ARM/embedded-5-bran
